
Flight_Controller.elf:     file format elf32-avr

Sections:
Idx Name          Size      VMA       LMA       File off  Algn
  0 .data         00000212  00804000  0000514c  000051e0  2**0
                  CONTENTS, ALLOC, LOAD, DATA
  1 .text         0000514c  00000000  00000000  00000094  2**1
                  CONTENTS, ALLOC, LOAD, READONLY, CODE
  2 .bss          00000af1  00804212  00804212  000053f2  2**0
                  ALLOC
  3 .comment      0000005c  00000000  00000000  000053f2  2**0
                  CONTENTS, READONLY
  4 .note.gnu.avr.deviceinfo 00000040  00000000  00000000  00005450  2**2
                  CONTENTS, READONLY
  5 .debug_info   00003545  00000000  00000000  00005490  2**0
                  CONTENTS, READONLY, DEBUGGING
  6 .debug_abbrev 00003274  00000000  00000000  000089d5  2**0
                  CONTENTS, READONLY, DEBUGGING
  7 .debug_line   00000205  00000000  00000000  0000bc49  2**0
                  CONTENTS, READONLY, DEBUGGING
  8 .debug_str    0000170f  00000000  00000000  0000be4e  2**0
                  CONTENTS, READONLY, DEBUGGING

Disassembly of section .text:

00000000 <__vectors>:
       0:	0c 94 cf 01 	jmp	0x39e	; 0x39e <__ctors_end>
       4:	0c 94 ee 01 	jmp	0x3dc	; 0x3dc <__bad_interrupt>
       8:	0c 94 ee 01 	jmp	0x3dc	; 0x3dc <__bad_interrupt>
       c:	0c 94 ee 01 	jmp	0x3dc	; 0x3dc <__bad_interrupt>
      10:	0c 94 ee 01 	jmp	0x3dc	; 0x3dc <__bad_interrupt>
      14:	0c 94 82 0a 	jmp	0x1504	; 0x1504 <__vector_5>
      18:	0c 94 ee 01 	jmp	0x3dc	; 0x3dc <__bad_interrupt>
      1c:	0c 94 ee 01 	jmp	0x3dc	; 0x3dc <__bad_interrupt>
      20:	0c 94 ee 01 	jmp	0x3dc	; 0x3dc <__bad_interrupt>
      24:	0c 94 ee 01 	jmp	0x3dc	; 0x3dc <__bad_interrupt>
      28:	0c 94 ee 01 	jmp	0x3dc	; 0x3dc <__bad_interrupt>
      2c:	0c 94 eb 07 	jmp	0xfd6	; 0xfd6 <__vector_11>
      30:	0c 94 07 08 	jmp	0x100e	; 0x100e <__vector_12>
      34:	0c 94 23 08 	jmp	0x1046	; 0x1046 <__vector_13>
      38:	0c 94 aa 0a 	jmp	0x1554	; 0x1554 <__vector_14>
      3c:	0c 94 d7 0a 	jmp	0x15ae	; 0x15ae <__vector_15>
      40:	0c 94 ee 01 	jmp	0x3dc	; 0x3dc <__bad_interrupt>
      44:	0c 94 ee 01 	jmp	0x3dc	; 0x3dc <__bad_interrupt>
      48:	0c 94 ee 01 	jmp	0x3dc	; 0x3dc <__bad_interrupt>
      4c:	0c 94 ee 01 	jmp	0x3dc	; 0x3dc <__bad_interrupt>
      50:	0c 94 ee 01 	jmp	0x3dc	; 0x3dc <__bad_interrupt>
      54:	0c 94 ee 01 	jmp	0x3dc	; 0x3dc <__bad_interrupt>
      58:	0c 94 ee 01 	jmp	0x3dc	; 0x3dc <__bad_interrupt>
      5c:	0c 94 ee 01 	jmp	0x3dc	; 0x3dc <__bad_interrupt>
      60:	0c 94 ee 01 	jmp	0x3dc	; 0x3dc <__bad_interrupt>
      64:	0c 94 ee 01 	jmp	0x3dc	; 0x3dc <__bad_interrupt>
      68:	0c 94 ee 01 	jmp	0x3dc	; 0x3dc <__bad_interrupt>
      6c:	0c 94 ee 01 	jmp	0x3dc	; 0x3dc <__bad_interrupt>
      70:	0c 94 ee 01 	jmp	0x3dc	; 0x3dc <__bad_interrupt>
      74:	0c 94 ee 01 	jmp	0x3dc	; 0x3dc <__bad_interrupt>
      78:	0c 94 ee 01 	jmp	0x3dc	; 0x3dc <__bad_interrupt>
      7c:	0c 94 ee 01 	jmp	0x3dc	; 0x3dc <__bad_interrupt>
      80:	0c 94 ee 01 	jmp	0x3dc	; 0x3dc <__bad_interrupt>
      84:	0c 94 ee 01 	jmp	0x3dc	; 0x3dc <__bad_interrupt>
      88:	0c 94 ee 01 	jmp	0x3dc	; 0x3dc <__bad_interrupt>
      8c:	0c 94 ee 01 	jmp	0x3dc	; 0x3dc <__bad_interrupt>
      90:	0c 94 ee 01 	jmp	0x3dc	; 0x3dc <__bad_interrupt>
      94:	0c 94 ee 01 	jmp	0x3dc	; 0x3dc <__bad_interrupt>
      98:	0c 94 ee 01 	jmp	0x3dc	; 0x3dc <__bad_interrupt>
      9c:	0c 94 ee 01 	jmp	0x3dc	; 0x3dc <__bad_interrupt>
      a0:	0c 94 ee 01 	jmp	0x3dc	; 0x3dc <__bad_interrupt>
      a4:	0c 94 ee 01 	jmp	0x3dc	; 0x3dc <__bad_interrupt>
      a8:	0c 94 ee 01 	jmp	0x3dc	; 0x3dc <__bad_interrupt>
      ac:	0c 94 ee 01 	jmp	0x3dc	; 0x3dc <__bad_interrupt>
      b0:	0c 94 ee 01 	jmp	0x3dc	; 0x3dc <__bad_interrupt>
      b4:	0c 94 ee 01 	jmp	0x3dc	; 0x3dc <__bad_interrupt>
      b8:	0c 94 ee 01 	jmp	0x3dc	; 0x3dc <__bad_interrupt>
      bc:	0c 94 ee 01 	jmp	0x3dc	; 0x3dc <__bad_interrupt>
      c0:	0c 94 ee 01 	jmp	0x3dc	; 0x3dc <__bad_interrupt>
      c4:	0c 94 3f 08 	jmp	0x107e	; 0x107e <__vector_49>
      c8:	0c 94 ee 01 	jmp	0x3dc	; 0x3dc <__bad_interrupt>
      cc:	0c 94 ee 01 	jmp	0x3dc	; 0x3dc <__bad_interrupt>
      d0:	0c 94 ee 01 	jmp	0x3dc	; 0x3dc <__bad_interrupt>
      d4:	0c 94 ba 17 	jmp	0x2f74	; 0x2f74 <__vector_53>
      d8:	0c 94 ee 01 	jmp	0x3dc	; 0x3dc <__bad_interrupt>
      dc:	0c 94 ee 01 	jmp	0x3dc	; 0x3dc <__bad_interrupt>
      e0:	0c 94 ee 01 	jmp	0x3dc	; 0x3dc <__bad_interrupt>
      e4:	0c 94 ee 01 	jmp	0x3dc	; 0x3dc <__bad_interrupt>
      e8:	0c 94 ee 01 	jmp	0x3dc	; 0x3dc <__bad_interrupt>
      ec:	0c 94 ee 01 	jmp	0x3dc	; 0x3dc <__bad_interrupt>
      f0:	0c 94 ee 01 	jmp	0x3dc	; 0x3dc <__bad_interrupt>
      f4:	60 06       	cpc	r6, r16
      f6:	6f 06       	cpc	r6, r31
      f8:	6f 06       	cpc	r6, r31
      fa:	6f 06       	cpc	r6, r31
      fc:	6f 06       	cpc	r6, r31
      fe:	6f 06       	cpc	r6, r31
     100:	6a 06       	cpc	r6, r26
     102:	6f 06       	cpc	r6, r31
     104:	65 06       	cpc	r6, r21
     106:	5b 06       	cpc	r5, r27
     108:	1a 06       	cpc	r1, r26
     10a:	6f 06       	cpc	r6, r31
     10c:	74 06       	cpc	r7, r20
     10e:	ed 05       	cpc	r30, r13
     110:	f2 05       	cpc	r31, r2
     112:	f7 05       	cpc	r31, r7
     114:	fc 05       	cpc	r31, r12
     116:	01 06       	cpc	r0, r17
     118:	06 06       	cpc	r0, r22
     11a:	0b 06       	cpc	r0, r27
     11c:	10 06       	cpc	r1, r16
     11e:	15 06       	cpc	r1, r21
     120:	6f 06       	cpc	r6, r31
     122:	6f 06       	cpc	r6, r31
     124:	6f 06       	cpc	r6, r31
     126:	6f 06       	cpc	r6, r31
     128:	6f 06       	cpc	r6, r31
     12a:	6f 06       	cpc	r6, r31
     12c:	6f 06       	cpc	r6, r31
     12e:	47 06       	cpc	r4, r23
     130:	6f 06       	cpc	r6, r31
     132:	4c 06       	cpc	r4, r28
     134:	56 06       	cpc	r5, r22
     136:	33 06       	cpc	r3, r19
     138:	51 06       	cpc	r5, r17
     13a:	1f 06       	cpc	r1, r31
     13c:	2e 06       	cpc	r2, r30
     13e:	6f 06       	cpc	r6, r31
     140:	6f 06       	cpc	r6, r31
     142:	6f 06       	cpc	r6, r31
     144:	38 06       	cpc	r3, r24
     146:	29 06       	cpc	r2, r25
     148:	24 06       	cpc	r2, r20
     14a:	3d 06       	cpc	r3, r29
     14c:	6f 06       	cpc	r6, r31
     14e:	6f 06       	cpc	r6, r31
     150:	42 06       	cpc	r4, r18
     152:	ab 06       	cpc	r10, r27
     154:	ad 06       	cpc	r10, r29
     156:	af 06       	cpc	r10, r31
     158:	b1 06       	cpc	r11, r17
     15a:	b3 06       	cpc	r11, r19
     15c:	b5 06       	cpc	r11, r21
     15e:	b7 06       	cpc	r11, r23
     160:	b9 06       	cpc	r11, r25
     162:	43 07       	cpc	r20, r19
     164:	49 07       	cpc	r20, r25
     166:	4b 07       	cpc	r20, r27
     168:	4d 07       	cpc	r20, r29
     16a:	4f 07       	cpc	r20, r31
     16c:	51 07       	cpc	r21, r17
     16e:	53 07       	cpc	r21, r19
     170:	08 4a       	sbci	r16, 0xA8	; 168
     172:	d7 3b       	cpi	r29, 0xB7	; 183
     174:	3b ce       	rjmp	.-906    	; 0xfffffdec <__eeprom_end+0xff7efdec>
     176:	01 6e       	ori	r16, 0xE1	; 225
     178:	84 bc       	out	0x24, r8	; 36
     17a:	bf fd       	.word	0xfdbf	; ????
     17c:	c1 2f       	mov	r28, r17
     17e:	3d 6c       	ori	r19, 0xCD	; 205
     180:	74 31       	cpi	r23, 0x14	; 20
     182:	9a bd       	out	0x2a, r25	; 42
     184:	56 83       	std	Z+6, r21	; 0x06
     186:	3d da       	rcall	.-2950   	; 0xfffff602 <__eeprom_end+0xff7ef602>
     188:	3d 00       	.word	0x003d	; ????
     18a:	c7 7f       	andi	r28, 0xF7	; 247
     18c:	11 be       	out	0x31, r1	; 49
     18e:	d9 e4       	ldi	r29, 0x49	; 73
     190:	bb 4c       	sbci	r27, 0xCB	; 203
     192:	3e 91       	ld	r19, -X
     194:	6b aa       	std	Y+51, r6	; 0x33
     196:	aa be       	out	0x3a, r10	; 58
     198:	00 00       	nop
     19a:	00 80       	ld	r0, Z
     19c:	3f 05       	cpc	r19, r15
     19e:	a8 4c       	sbci	r26, 0xC8	; 200
     1a0:	cd b2       	in	r12, 0x1d	; 29
     1a2:	d4 4e       	sbci	r29, 0xE4	; 228
     1a4:	b9 38       	cpi	r27, 0x89	; 137
     1a6:	36 a9       	ldd	r19, Z+54	; 0x36
     1a8:	02 0c       	add	r0, r2
     1aa:	50 b9       	out	0x00, r21	; 0
     1ac:	91 86       	std	Z+9, r9	; 0x09
     1ae:	88 08       	sbc	r8, r8
     1b0:	3c a6       	std	Y+44, r3	; 0x2c
     1b2:	aa aa       	std	Y+50, r10	; 0x32
     1b4:	2a be       	out	0x3a, r2	; 58
     1b6:	00 00       	nop
     1b8:	00 80       	ld	r0, Z
     1ba:	3f 06       	cpc	r3, r31
     1bc:	64 ec       	ldi	r22, 0xC4	; 196
     1be:	1b 3c       	cpi	r17, 0xCB	; 203
     1c0:	04 bc       	out	0x24, r0	; 36
     1c2:	16 3e       	cpi	r17, 0xE6	; 230
     1c4:	3b e5       	ldi	r19, 0x5B	; 91
     1c6:	b9 3c       	cpi	r27, 0xC9	; 201
     1c8:	c9 3c       	cpi	r28, 0xC9	; 201
     1ca:	37 c2       	rjmp	.+1134   	; 0x63a <Write_SPI+0xdc>
     1cc:	9e 5a       	subi	r25, 0xAE	; 174
     1ce:	3d 66       	ori	r19, 0x6D	; 109
     1d0:	04 98       	cbi	0x00, 4	; 0
     1d2:	08 3e       	cpi	r16, 0xE8	; 232
     1d4:	ea 69       	ori	r30, 0x9A	; 154
     1d6:	aa aa       	std	Y+50, r10	; 0x32
     1d8:	3e 00       	.word	0x003e	; ????
     1da:	00 00       	nop
     1dc:	80 3f       	cpi	r24, 0xF0	; 240
     1de:	07 63       	ori	r16, 0x37	; 55
     1e0:	42 36       	cpi	r20, 0x62	; 98
     1e2:	b7 9b       	sbis	0x16, 7	; 22
     1e4:	d8 a7       	std	Y+40, r29	; 0x28
     1e6:	1a 39       	cpi	r17, 0x9A	; 154
     1e8:	68 56       	subi	r22, 0x68	; 104
     1ea:	18 ae       	std	Y+56, r1	; 0x38
     1ec:	ba ab       	std	Y+50, r27	; 0x32
     1ee:	55 8c       	ldd	r5, Z+29	; 0x1d
     1f0:	1d 3c       	cpi	r17, 0xCD	; 205
     1f2:	b7 cc       	rjmp	.-1682   	; 0xfffffb62 <__eeprom_end+0xff7efb62>
     1f4:	57 63       	ori	r21, 0x37	; 55
     1f6:	bd 6d       	ori	r27, 0xDD	; 221
     1f8:	ed fd       	.word	0xfded	; ????
     1fa:	75 3e       	cpi	r23, 0xE5	; 229
     1fc:	f6 17       	cp	r31, r22
     1fe:	72 31       	cpi	r23, 0x12	; 18
     200:	bf 00       	.word	0x00bf	; ????
     202:	00 00       	nop
     204:	80 3f       	cpi	r24, 0xF0	; 240
     206:	08 00       	.word	0x0008	; ????
     208:	00 00       	nop
     20a:	be 92       	st	-X, r11
     20c:	24 49       	sbci	r18, 0x94	; 148
     20e:	12 3e       	cpi	r17, 0xE2	; 226
     210:	ab aa       	std	Y+51, r10	; 0x33
     212:	aa 2a       	or	r10, r26
     214:	be cd       	rjmp	.-1156   	; 0xfffffd92 <__eeprom_end+0xff7efd92>
     216:	cc cc       	rjmp	.-1640   	; 0xfffffbb0 <__eeprom_end+0xff7efbb0>
     218:	4c 3e       	cpi	r20, 0xEC	; 236
     21a:	00 00       	nop
     21c:	00 80       	ld	r0, Z
     21e:	be ab       	std	Y+54, r27	; 0x36
     220:	aa aa       	std	Y+50, r10	; 0x32
     222:	aa 3e       	cpi	r26, 0xEA	; 234
     224:	00 00       	nop
     226:	00 00       	nop
     228:	bf 00       	.word	0x00bf	; ????
     22a:	00 00       	nop
     22c:	80 3f       	cpi	r24, 0xF0	; 240
     22e:	00 00       	nop
     230:	00 00       	nop
     232:	00 08       	sbc	r0, r0
     234:	41 78       	andi	r20, 0x81	; 129
     236:	d3 bb       	out	0x13, r29	; 19
     238:	43 87       	std	Z+11, r20	; 0x0b
     23a:	d1 13       	cpse	r29, r17
     23c:	3d 19       	sub	r19, r13
     23e:	0e 3c       	cpi	r16, 0xCE	; 206
     240:	c3 bd       	out	0x23, r28	; 35
     242:	42 82       	std	Z+2, r4	; 0x02
     244:	ad 2b       	or	r26, r29
     246:	3e 68       	ori	r19, 0x8E	; 142
     248:	ec 82       	std	Y+4, r14	; 0x04
     24a:	76 be       	out	0x36, r7	; 54
     24c:	d9 8f       	std	Y+25, r29	; 0x19
     24e:	e1 a9       	ldd	r30, Z+49	; 0x31
     250:	3e 4c       	sbci	r19, 0xCE	; 206
     252:	80 ef       	ldi	r24, 0xF0	; 240
     254:	ff be       	out	0x3f, r15	; 63
     256:	01 c4       	rjmp	.+2050   	; 0xa5a <Write_Character+0x10e>
     258:	ff 7f       	andi	r31, 0xFF	; 255
     25a:	3f 00       	.word	0x003f	; ????
     25c:	00 00       	nop
	...

00000260 <__trampolines_end>:
     260:	6e 61       	ori	r22, 0x1E	; 30
     262:	6e 00       	.word	0x006e	; ????

00000264 <__c.2332>:
     264:	69 6e 66 00                                         inf.

00000268 <pstr_nan>:
     268:	4e 41 4e                                            NAN

0000026b <pstr_inity>:
     26b:	49 4e 49 54 59                                      INITY

00000270 <pstr_inf>:
     270:	49 4e 46                                            INF

00000273 <pwr_m10>:
     273:	cd cc cc 3d 0a d7 23 3c 17 b7 d1 38 77 cc 2b 32     ...=..#<...8w.+2
     283:	95 95 e6 24 1f b1 4f 0a                             ...$..O.

0000028b <pwr_p10>:
     28b:	00 00 20 41 00 00 c8 42 00 40 1c 46 20 bc be 4c     .. A...B.@.F ..L
     29b:	ca 1b 0e 5a ae c5 9d 74 00 40 7a 10 f3 5a 00 a0     ...Z...t.@z..Z..
     2ab:	72 4e 18 09 00 10 a5 d4 e8 00 00 e8 76 48 17 00     rN..........vH..
     2bb:	00 e4 0b 54 02 00 00 ca 9a 3b 00 00 00 e1 f5 05     ...T.....;......
     2cb:	00 00 80 96 98 00 00 00 40 42 0f 00 00 00 a0 86     ........@B......
     2db:	01 00 00 00 10 27 00 00 00 00 e8 03 00 00 00 00     .....'..........
     2eb:	64 00 00 00 00 00 0a 00 00 00 00 00 01 00 00 00     d...............
     2fb:	00 00 2c 76 d8 88 dc 67 4f 08 23 df c1 df ae 59     ..,v...gO.#....Y
     30b:	e1 b1 b7 96 e5 e3 e4 53 c6 3a e6 51 99 76 96 e8     .......S.:.Q.v..
     31b:	e6 c2 84 26 eb 89 8c 9b 62 ed 40 7c 6f fc ef bc     ...&....b.@|o...
     32b:	9c 9f 40 f2 ba a5 6f a5 f4 90 05 5a 2a f7 5c 93     ..@...o....Z*.\.
     33b:	6b 6c f9 67 6d c1 1b fc e0 e4 0d 47 fe f5 20 e6     kl.gm......G.. .
     34b:	b5 00 d0 ed 90 2e 03 00 94 35 77 05 00 80 84 1e     .........5w.....
     35b:	08 00 00 20 4e 0a 00 00 00 c8 0c 33 33 33 33 0f     ... N......3333.
     36b:	98 6e 12 83 11 41 ef 8d 21 14 89 3b e6 55 16 cf     .n...A..!..;.U..
     37b:	fe e6 db 18 d1 84 4b 38 1b f7 7c 1d 90 1d a4 bb     ......K8..|.....
     38b:	e4 24 20 32 84 72 5e 22 81 00 c9 f1 24 ec a1 e5     .$ 2.r^"....$...
     39b:	3d 27 00                                            ='.

0000039e <__ctors_end>:
     39e:	11 24       	eor	r1, r1
     3a0:	1f be       	out	0x3f, r1	; 63
     3a2:	cf ef       	ldi	r28, 0xFF	; 255
     3a4:	cd bf       	out	0x3d, r28	; 61
     3a6:	df e7       	ldi	r29, 0x7F	; 127
     3a8:	de bf       	out	0x3e, r29	; 62

000003aa <__do_copy_data>:
     3aa:	12 e4       	ldi	r17, 0x42	; 66
     3ac:	a0 e0       	ldi	r26, 0x00	; 0
     3ae:	b0 e4       	ldi	r27, 0x40	; 64
     3b0:	ec e4       	ldi	r30, 0x4C	; 76
     3b2:	f1 e5       	ldi	r31, 0x51	; 81
     3b4:	00 e0       	ldi	r16, 0x00	; 0
     3b6:	0b bf       	out	0x3b, r16	; 59
     3b8:	02 c0       	rjmp	.+4      	; 0x3be <__do_copy_data+0x14>
     3ba:	07 90       	elpm	r0, Z+
     3bc:	0d 92       	st	X+, r0
     3be:	a2 31       	cpi	r26, 0x12	; 18
     3c0:	b1 07       	cpc	r27, r17
     3c2:	d9 f7       	brne	.-10     	; 0x3ba <__do_copy_data+0x10>

000003c4 <__do_clear_bss>:
     3c4:	2d e4       	ldi	r18, 0x4D	; 77
     3c6:	a2 e1       	ldi	r26, 0x12	; 18
     3c8:	b2 e4       	ldi	r27, 0x42	; 66
     3ca:	01 c0       	rjmp	.+2      	; 0x3ce <.do_clear_bss_start>

000003cc <.do_clear_bss_loop>:
     3cc:	1d 92       	st	X+, r1

000003ce <.do_clear_bss_start>:
     3ce:	a3 30       	cpi	r26, 0x03	; 3
     3d0:	b2 07       	cpc	r27, r18
     3d2:	e1 f7       	brne	.-8      	; 0x3cc <.do_clear_bss_loop>
     3d4:	0e 94 73 0a 	call	0x14e6	; 0x14e6 <main>
     3d8:	0c 94 a4 28 	jmp	0x5148	; 0x5148 <_exit>

000003dc <__bad_interrupt>:
     3dc:	0c 94 00 00 	jmp	0	; 0x0 <__vectors>

000003e0 <Setup_SPI>:
     3e0:	e0 e0       	ldi	r30, 0x00	; 0
     3e2:	f4 e0       	ldi	r31, 0x04	; 4
     3e4:	80 81       	ld	r24, Z
     3e6:	80 6e       	ori	r24, 0xE0	; 224
     3e8:	80 83       	st	Z, r24
     3ea:	e0 e2       	ldi	r30, 0x20	; 32
     3ec:	f4 e0       	ldi	r31, 0x04	; 4
     3ee:	80 81       	ld	r24, Z
     3f0:	8c 60       	ori	r24, 0x0C	; 12
     3f2:	80 83       	st	Z, r24
     3f4:	e0 e4       	ldi	r30, 0x40	; 64
     3f6:	f4 e0       	ldi	r31, 0x04	; 4
     3f8:	80 81       	ld	r24, Z
     3fa:	85 60       	ori	r24, 0x05	; 5
     3fc:	80 83       	st	Z, r24
     3fe:	e4 e0       	ldi	r30, 0x04	; 4
     400:	f4 e0       	ldi	r31, 0x04	; 4
     402:	80 81       	ld	r24, Z
     404:	80 6e       	ori	r24, 0xE0	; 224
     406:	80 83       	st	Z, r24
     408:	e4 e2       	ldi	r30, 0x24	; 36
     40a:	f4 e0       	ldi	r31, 0x04	; 4
     40c:	80 81       	ld	r24, Z
     40e:	8c 60       	ori	r24, 0x0C	; 12
     410:	80 83       	st	Z, r24
     412:	e0 e6       	ldi	r30, 0x60	; 96
     414:	f9 e0       	ldi	r31, 0x09	; 9
     416:	80 81       	ld	r24, Z
     418:	81 62       	ori	r24, 0x21	; 33
     41a:	80 83       	st	Z, r24
     41c:	08 95       	ret

0000041e <Read_SPI>:
     41e:	8f 92       	push	r8
     420:	9f 92       	push	r9
     422:	af 92       	push	r10
     424:	bf 92       	push	r11
     426:	cf 92       	push	r12
     428:	df 92       	push	r13
     42a:	ef 92       	push	r14
     42c:	ff 92       	push	r15
     42e:	0f 93       	push	r16
     430:	1f 93       	push	r17
     432:	cf 93       	push	r28
     434:	df 93       	push	r29
     436:	81 34       	cpi	r24, 0x41	; 65
     438:	71 f4       	brne	.+28     	; 0x456 <Read_SPI+0x38>
     43a:	90 91 04 04 	lds	r25, 0x0404	; 0x800404 <__TEXT_REGION_LENGTH__+0x7e0404>
     43e:	e1 e0       	ldi	r30, 0x01	; 1
     440:	f0 e0       	ldi	r31, 0x00	; 0
     442:	06 2e       	mov	r0, r22
     444:	01 c0       	rjmp	.+2      	; 0x448 <Read_SPI+0x2a>
     446:	ee 0f       	add	r30, r30
     448:	0a 94       	dec	r0
     44a:	ea f7       	brpl	.-6      	; 0x446 <Read_SPI+0x28>
     44c:	e0 95       	com	r30
     44e:	e9 23       	and	r30, r25
     450:	e0 93 04 04 	sts	0x0404, r30	; 0x800404 <__TEXT_REGION_LENGTH__+0x7e0404>
     454:	10 c0       	rjmp	.+32     	; 0x476 <Read_SPI+0x58>
     456:	82 34       	cpi	r24, 0x42	; 66
     458:	09 f0       	breq	.+2      	; 0x45c <Read_SPI+0x3e>
     45a:	73 c0       	rjmp	.+230    	; 0x542 <Read_SPI+0x124>
     45c:	90 91 24 04 	lds	r25, 0x0424	; 0x800424 <__TEXT_REGION_LENGTH__+0x7e0424>
     460:	e1 e0       	ldi	r30, 0x01	; 1
     462:	f0 e0       	ldi	r31, 0x00	; 0
     464:	06 2e       	mov	r0, r22
     466:	01 c0       	rjmp	.+2      	; 0x46a <Read_SPI+0x4c>
     468:	ee 0f       	add	r30, r30
     46a:	0a 94       	dec	r0
     46c:	ea f7       	brpl	.-6      	; 0x468 <Read_SPI+0x4a>
     46e:	e0 95       	com	r30
     470:	e9 23       	and	r30, r25
     472:	e0 93 24 04 	sts	0x0424, r30	; 0x800424 <__TEXT_REGION_LENGTH__+0x7e0424>
     476:	90 2e       	mov	r9, r16
     478:	13 2f       	mov	r17, r19
     47a:	d2 2f       	mov	r29, r18
     47c:	c6 2f       	mov	r28, r22
     47e:	08 2f       	mov	r16, r24
     480:	40 93 64 09 	sts	0x0964, r20	; 0x800964 <__TEXT_REGION_LENGTH__+0x7e0964>
     484:	c1 2c       	mov	r12, r1
     486:	d1 2c       	mov	r13, r1
     488:	76 01       	movw	r14, r12
     48a:	80 91 63 09 	lds	r24, 0x0963	; 0x800963 <__TEXT_REGION_LENGTH__+0x7e0963>
     48e:	87 fd       	sbrc	r24, 7
     490:	13 c0       	rjmp	.+38     	; 0x4b8 <Read_SPI+0x9a>
     492:	8f ef       	ldi	r24, 0xFF	; 255
     494:	c8 1a       	sub	r12, r24
     496:	d8 0a       	sbc	r13, r24
     498:	e8 0a       	sbc	r14, r24
     49a:	f8 0a       	sbc	r15, r24
     49c:	c7 01       	movw	r24, r14
     49e:	b6 01       	movw	r22, r12
     4a0:	0e 94 54 1c 	call	0x38a8	; 0x38a8 <__floatunsisf>
     4a4:	20 e0       	ldi	r18, 0x00	; 0
     4a6:	30 e5       	ldi	r19, 0x50	; 80
     4a8:	43 ec       	ldi	r20, 0xC3	; 195
     4aa:	57 e4       	ldi	r21, 0x47	; 71
     4ac:	0e 94 6c 1d 	call	0x3ad8	; 0x3ad8 <__gesf2>
     4b0:	18 16       	cp	r1, r24
     4b2:	5c f7       	brge	.-42     	; 0x48a <Read_SPI+0x6c>
     4b4:	81 e0       	ldi	r24, 0x01	; 1
     4b6:	46 c0       	rjmp	.+140    	; 0x544 <Read_SPI+0x126>
     4b8:	90 91 63 09 	lds	r25, 0x0963	; 0x800963 <__TEXT_REGION_LENGTH__+0x7e0963>
     4bc:	9f 77       	andi	r25, 0x7F	; 127
     4be:	90 93 63 09 	sts	0x0963, r25	; 0x800963 <__TEXT_REGION_LENGTH__+0x7e0963>
     4c2:	8d 2e       	mov	r8, r29
     4c4:	ad 2e       	mov	r10, r29
     4c6:	b1 2e       	mov	r11, r17
     4c8:	8a 2d       	mov	r24, r10
     4ca:	88 19       	sub	r24, r8
     4cc:	89 15       	cp	r24, r9
     4ce:	f0 f4       	brcc	.+60     	; 0x50c <Read_SPI+0xee>
     4d0:	10 92 64 09 	sts	0x0964, r1	; 0x800964 <__TEXT_REGION_LENGTH__+0x7e0964>
     4d4:	80 91 63 09 	lds	r24, 0x0963	; 0x800963 <__TEXT_REGION_LENGTH__+0x7e0963>
     4d8:	87 fd       	sbrc	r24, 7
     4da:	12 c0       	rjmp	.+36     	; 0x500 <Read_SPI+0xe2>
     4dc:	ef ef       	ldi	r30, 0xFF	; 255
     4de:	ce 1a       	sub	r12, r30
     4e0:	de 0a       	sbc	r13, r30
     4e2:	ee 0a       	sbc	r14, r30
     4e4:	fe 0a       	sbc	r15, r30
     4e6:	c7 01       	movw	r24, r14
     4e8:	b6 01       	movw	r22, r12
     4ea:	0e 94 54 1c 	call	0x38a8	; 0x38a8 <__floatunsisf>
     4ee:	20 e0       	ldi	r18, 0x00	; 0
     4f0:	30 e5       	ldi	r19, 0x50	; 80
     4f2:	43 ec       	ldi	r20, 0xC3	; 195
     4f4:	57 e4       	ldi	r21, 0x47	; 71
     4f6:	0e 94 6c 1d 	call	0x3ad8	; 0x3ad8 <__gesf2>
     4fa:	18 16       	cp	r1, r24
     4fc:	5c f7       	brge	.-42     	; 0x4d4 <Read_SPI+0xb6>
     4fe:	da cf       	rjmp	.-76     	; 0x4b4 <Read_SPI+0x96>
     500:	80 91 64 09 	lds	r24, 0x0964	; 0x800964 <__TEXT_REGION_LENGTH__+0x7e0964>
     504:	f5 01       	movw	r30, r10
     506:	81 93       	st	Z+, r24
     508:	5f 01       	movw	r10, r30
     50a:	de cf       	rjmp	.-68     	; 0x4c8 <Read_SPI+0xaa>
     50c:	01 34       	cpi	r16, 0x41	; 65
     50e:	61 f4       	brne	.+24     	; 0x528 <Read_SPI+0x10a>
     510:	20 91 04 04 	lds	r18, 0x0404	; 0x800404 <__TEXT_REGION_LENGTH__+0x7e0404>
     514:	81 e0       	ldi	r24, 0x01	; 1
     516:	90 e0       	ldi	r25, 0x00	; 0
     518:	01 c0       	rjmp	.+2      	; 0x51c <Read_SPI+0xfe>
     51a:	88 0f       	add	r24, r24
     51c:	ca 95       	dec	r28
     51e:	ea f7       	brpl	.-6      	; 0x51a <Read_SPI+0xfc>
     520:	82 2b       	or	r24, r18
     522:	80 93 04 04 	sts	0x0404, r24	; 0x800404 <__TEXT_REGION_LENGTH__+0x7e0404>
     526:	0b c0       	rjmp	.+22     	; 0x53e <Read_SPI+0x120>
     528:	20 91 24 04 	lds	r18, 0x0424	; 0x800424 <__TEXT_REGION_LENGTH__+0x7e0424>
     52c:	81 e0       	ldi	r24, 0x01	; 1
     52e:	90 e0       	ldi	r25, 0x00	; 0
     530:	01 c0       	rjmp	.+2      	; 0x534 <Read_SPI+0x116>
     532:	88 0f       	add	r24, r24
     534:	ca 95       	dec	r28
     536:	ea f7       	brpl	.-6      	; 0x532 <Read_SPI+0x114>
     538:	82 2b       	or	r24, r18
     53a:	80 93 24 04 	sts	0x0424, r24	; 0x800424 <__TEXT_REGION_LENGTH__+0x7e0424>
     53e:	82 e0       	ldi	r24, 0x02	; 2
     540:	01 c0       	rjmp	.+2      	; 0x544 <Read_SPI+0x126>
     542:	80 e0       	ldi	r24, 0x00	; 0
     544:	df 91       	pop	r29
     546:	cf 91       	pop	r28
     548:	1f 91       	pop	r17
     54a:	0f 91       	pop	r16
     54c:	ff 90       	pop	r15
     54e:	ef 90       	pop	r14
     550:	df 90       	pop	r13
     552:	cf 90       	pop	r12
     554:	bf 90       	pop	r11
     556:	af 90       	pop	r10
     558:	9f 90       	pop	r9
     55a:	8f 90       	pop	r8
     55c:	08 95       	ret

0000055e <Write_SPI>:
     55e:	cf 92       	push	r12
     560:	df 92       	push	r13
     562:	ef 92       	push	r14
     564:	ff 92       	push	r15
     566:	1f 93       	push	r17
     568:	cf 93       	push	r28
     56a:	df 93       	push	r29
     56c:	81 34       	cpi	r24, 0x41	; 65
     56e:	71 f4       	brne	.+28     	; 0x58c <Write_SPI+0x2e>
     570:	90 91 04 04 	lds	r25, 0x0404	; 0x800404 <__TEXT_REGION_LENGTH__+0x7e0404>
     574:	e1 e0       	ldi	r30, 0x01	; 1
     576:	f0 e0       	ldi	r31, 0x00	; 0
     578:	06 2e       	mov	r0, r22
     57a:	01 c0       	rjmp	.+2      	; 0x57e <Write_SPI+0x20>
     57c:	ee 0f       	add	r30, r30
     57e:	0a 94       	dec	r0
     580:	ea f7       	brpl	.-6      	; 0x57c <Write_SPI+0x1e>
     582:	e0 95       	com	r30
     584:	e9 23       	and	r30, r25
     586:	e0 93 04 04 	sts	0x0404, r30	; 0x800404 <__TEXT_REGION_LENGTH__+0x7e0404>
     58a:	10 c0       	rjmp	.+32     	; 0x5ac <Write_SPI+0x4e>
     58c:	82 34       	cpi	r24, 0x42	; 66
     58e:	09 f0       	breq	.+2      	; 0x592 <Write_SPI+0x34>
     590:	5f c0       	rjmp	.+190    	; 0x650 <Write_SPI+0xf2>
     592:	90 91 24 04 	lds	r25, 0x0424	; 0x800424 <__TEXT_REGION_LENGTH__+0x7e0424>
     596:	e1 e0       	ldi	r30, 0x01	; 1
     598:	f0 e0       	ldi	r31, 0x00	; 0
     59a:	06 2e       	mov	r0, r22
     59c:	01 c0       	rjmp	.+2      	; 0x5a0 <Write_SPI+0x42>
     59e:	ee 0f       	add	r30, r30
     5a0:	0a 94       	dec	r0
     5a2:	ea f7       	brpl	.-6      	; 0x59e <Write_SPI+0x40>
     5a4:	e0 95       	com	r30
     5a6:	e9 23       	and	r30, r25
     5a8:	e0 93 24 04 	sts	0x0424, r30	; 0x800424 <__TEXT_REGION_LENGTH__+0x7e0424>
     5ac:	d2 2f       	mov	r29, r18
     5ae:	16 2f       	mov	r17, r22
     5b0:	c8 2f       	mov	r28, r24
     5b2:	40 93 64 09 	sts	0x0964, r20	; 0x800964 <__TEXT_REGION_LENGTH__+0x7e0964>
     5b6:	c1 2c       	mov	r12, r1
     5b8:	d1 2c       	mov	r13, r1
     5ba:	76 01       	movw	r14, r12
     5bc:	80 91 63 09 	lds	r24, 0x0963	; 0x800963 <__TEXT_REGION_LENGTH__+0x7e0963>
     5c0:	87 fd       	sbrc	r24, 7
     5c2:	13 c0       	rjmp	.+38     	; 0x5ea <Write_SPI+0x8c>
     5c4:	8f ef       	ldi	r24, 0xFF	; 255
     5c6:	c8 1a       	sub	r12, r24
     5c8:	d8 0a       	sbc	r13, r24
     5ca:	e8 0a       	sbc	r14, r24
     5cc:	f8 0a       	sbc	r15, r24
     5ce:	c7 01       	movw	r24, r14
     5d0:	b6 01       	movw	r22, r12
     5d2:	0e 94 54 1c 	call	0x38a8	; 0x38a8 <__floatunsisf>
     5d6:	20 e0       	ldi	r18, 0x00	; 0
     5d8:	30 e5       	ldi	r19, 0x50	; 80
     5da:	43 ec       	ldi	r20, 0xC3	; 195
     5dc:	57 e4       	ldi	r21, 0x47	; 71
     5de:	0e 94 6c 1d 	call	0x3ad8	; 0x3ad8 <__gesf2>
     5e2:	18 16       	cp	r1, r24
     5e4:	5c f7       	brge	.-42     	; 0x5bc <Write_SPI+0x5e>
     5e6:	81 e0       	ldi	r24, 0x01	; 1
     5e8:	34 c0       	rjmp	.+104    	; 0x652 <Write_SPI+0xf4>
     5ea:	d0 93 64 09 	sts	0x0964, r29	; 0x800964 <__TEXT_REGION_LENGTH__+0x7e0964>
     5ee:	80 91 63 09 	lds	r24, 0x0963	; 0x800963 <__TEXT_REGION_LENGTH__+0x7e0963>
     5f2:	87 fd       	sbrc	r24, 7
     5f4:	12 c0       	rjmp	.+36     	; 0x61a <Write_SPI+0xbc>
     5f6:	8f ef       	ldi	r24, 0xFF	; 255
     5f8:	c8 1a       	sub	r12, r24
     5fa:	d8 0a       	sbc	r13, r24
     5fc:	e8 0a       	sbc	r14, r24
     5fe:	f8 0a       	sbc	r15, r24
     600:	c7 01       	movw	r24, r14
     602:	b6 01       	movw	r22, r12
     604:	0e 94 54 1c 	call	0x38a8	; 0x38a8 <__floatunsisf>
     608:	20 e0       	ldi	r18, 0x00	; 0
     60a:	30 e5       	ldi	r19, 0x50	; 80
     60c:	43 ec       	ldi	r20, 0xC3	; 195
     60e:	57 e4       	ldi	r21, 0x47	; 71
     610:	0e 94 6c 1d 	call	0x3ad8	; 0x3ad8 <__gesf2>
     614:	18 16       	cp	r1, r24
     616:	5c f7       	brge	.-42     	; 0x5ee <Write_SPI+0x90>
     618:	e6 cf       	rjmp	.-52     	; 0x5e6 <Write_SPI+0x88>
     61a:	c1 34       	cpi	r28, 0x41	; 65
     61c:	61 f4       	brne	.+24     	; 0x636 <Write_SPI+0xd8>
     61e:	20 91 04 04 	lds	r18, 0x0404	; 0x800404 <__TEXT_REGION_LENGTH__+0x7e0404>
     622:	81 e0       	ldi	r24, 0x01	; 1
     624:	90 e0       	ldi	r25, 0x00	; 0
     626:	01 c0       	rjmp	.+2      	; 0x62a <Write_SPI+0xcc>
     628:	88 0f       	add	r24, r24
     62a:	1a 95       	dec	r17
     62c:	ea f7       	brpl	.-6      	; 0x628 <Write_SPI+0xca>
     62e:	82 2b       	or	r24, r18
     630:	80 93 04 04 	sts	0x0404, r24	; 0x800404 <__TEXT_REGION_LENGTH__+0x7e0404>
     634:	0b c0       	rjmp	.+22     	; 0x64c <Write_SPI+0xee>
     636:	20 91 24 04 	lds	r18, 0x0424	; 0x800424 <__TEXT_REGION_LENGTH__+0x7e0424>
     63a:	81 e0       	ldi	r24, 0x01	; 1
     63c:	90 e0       	ldi	r25, 0x00	; 0
     63e:	01 c0       	rjmp	.+2      	; 0x642 <Write_SPI+0xe4>
     640:	88 0f       	add	r24, r24
     642:	1a 95       	dec	r17
     644:	ea f7       	brpl	.-6      	; 0x640 <Write_SPI+0xe2>
     646:	82 2b       	or	r24, r18
     648:	80 93 24 04 	sts	0x0424, r24	; 0x800424 <__TEXT_REGION_LENGTH__+0x7e0424>
     64c:	82 e0       	ldi	r24, 0x02	; 2
     64e:	01 c0       	rjmp	.+2      	; 0x652 <Write_SPI+0xf4>
     650:	80 e0       	ldi	r24, 0x00	; 0
     652:	df 91       	pop	r29
     654:	cf 91       	pop	r28
     656:	1f 91       	pop	r17
     658:	ff 90       	pop	r15
     65a:	ef 90       	pop	r14
     65c:	df 90       	pop	r13
     65e:	cf 90       	pop	r12
     660:	08 95       	ret

00000662 <Setup_TWI>:
     662:	e0 e0       	ldi	r30, 0x00	; 0
     664:	f9 e0       	ldi	r31, 0x09	; 9
     666:	80 81       	ld	r24, Z
     668:	8c 60       	ori	r24, 0x0C	; 12
     66a:	80 83       	st	Z, r24
     66c:	89 e1       	ldi	r24, 0x19	; 25
     66e:	80 93 06 09 	sts	0x0906, r24	; 0x800906 <__TEXT_REGION_LENGTH__+0x7e0906>
     672:	e3 e0       	ldi	r30, 0x03	; 3
     674:	f9 e0       	ldi	r31, 0x09	; 9
     676:	80 81       	ld	r24, Z
     678:	83 61       	ori	r24, 0x13	; 19
     67a:	80 83       	st	Z, r24
     67c:	e5 e0       	ldi	r30, 0x05	; 5
     67e:	f9 e0       	ldi	r31, 0x09	; 9
     680:	80 81       	ld	r24, Z
     682:	81 60       	ori	r24, 0x01	; 1
     684:	80 83       	st	Z, r24
     686:	e2 e1       	ldi	r30, 0x12	; 18
     688:	f4 e0       	ldi	r31, 0x04	; 4
     68a:	80 81       	ld	r24, Z
     68c:	88 60       	ori	r24, 0x08	; 8
     68e:	80 83       	st	Z, r24
     690:	e3 e1       	ldi	r30, 0x13	; 19
     692:	f4 e0       	ldi	r31, 0x04	; 4
     694:	80 81       	ld	r24, Z
     696:	88 60       	ori	r24, 0x08	; 8
     698:	80 83       	st	Z, r24
     69a:	08 95       	ret

0000069c <Write_TWI>:
     69c:	af 92       	push	r10
     69e:	bf 92       	push	r11
     6a0:	cf 92       	push	r12
     6a2:	df 92       	push	r13
     6a4:	ef 92       	push	r14
     6a6:	ff 92       	push	r15
     6a8:	0f 93       	push	r16
     6aa:	1f 93       	push	r17
     6ac:	cf 93       	push	r28
     6ae:	df 93       	push	r29
     6b0:	c6 2f       	mov	r28, r22
     6b2:	14 2f       	mov	r17, r20
     6b4:	a5 2e       	mov	r10, r21
     6b6:	02 2f       	mov	r16, r18
     6b8:	88 0f       	add	r24, r24
     6ba:	80 93 07 09 	sts	0x0907, r24	; 0x800907 <__TEXT_REGION_LENGTH__+0x7e0907>
     6be:	c1 2c       	mov	r12, r1
     6c0:	d1 2c       	mov	r13, r1
     6c2:	76 01       	movw	r14, r12
     6c4:	80 91 05 09 	lds	r24, 0x0905	; 0x800905 <__TEXT_REGION_LENGTH__+0x7e0905>
     6c8:	86 fd       	sbrc	r24, 6
     6ca:	13 c0       	rjmp	.+38     	; 0x6f2 <Write_TWI+0x56>
     6cc:	8f ef       	ldi	r24, 0xFF	; 255
     6ce:	c8 1a       	sub	r12, r24
     6d0:	d8 0a       	sbc	r13, r24
     6d2:	e8 0a       	sbc	r14, r24
     6d4:	f8 0a       	sbc	r15, r24
     6d6:	c7 01       	movw	r24, r14
     6d8:	b6 01       	movw	r22, r12
     6da:	0e 94 54 1c 	call	0x38a8	; 0x38a8 <__floatunsisf>
     6de:	20 e0       	ldi	r18, 0x00	; 0
     6e0:	34 e2       	ldi	r19, 0x24	; 36
     6e2:	44 e7       	ldi	r20, 0x74	; 116
     6e4:	59 e4       	ldi	r21, 0x49	; 73
     6e6:	0e 94 6c 1d 	call	0x3ad8	; 0x3ad8 <__gesf2>
     6ea:	18 16       	cp	r1, r24
     6ec:	5c f7       	brge	.-42     	; 0x6c4 <Write_TWI+0x28>
     6ee:	83 e0       	ldi	r24, 0x03	; 3
     6f0:	50 c0       	rjmp	.+160    	; 0x792 <Write_TWI+0xf6>
     6f2:	80 91 05 09 	lds	r24, 0x0905	; 0x800905 <__TEXT_REGION_LENGTH__+0x7e0905>
     6f6:	84 fd       	sbrc	r24, 4
     6f8:	49 c0       	rjmp	.+146    	; 0x78c <Write_TWI+0xf0>
     6fa:	c0 93 08 09 	sts	0x0908, r28	; 0x800908 <__TEXT_REGION_LENGTH__+0x7e0908>
     6fe:	80 91 05 09 	lds	r24, 0x0905	; 0x800905 <__TEXT_REGION_LENGTH__+0x7e0905>
     702:	86 fd       	sbrc	r24, 6
     704:	12 c0       	rjmp	.+36     	; 0x72a <Write_TWI+0x8e>
     706:	8f ef       	ldi	r24, 0xFF	; 255
     708:	c8 1a       	sub	r12, r24
     70a:	d8 0a       	sbc	r13, r24
     70c:	e8 0a       	sbc	r14, r24
     70e:	f8 0a       	sbc	r15, r24
     710:	c7 01       	movw	r24, r14
     712:	b6 01       	movw	r22, r12
     714:	0e 94 54 1c 	call	0x38a8	; 0x38a8 <__floatunsisf>
     718:	20 e0       	ldi	r18, 0x00	; 0
     71a:	34 e2       	ldi	r19, 0x24	; 36
     71c:	44 e7       	ldi	r20, 0x74	; 116
     71e:	59 e4       	ldi	r21, 0x49	; 73
     720:	0e 94 6c 1d 	call	0x3ad8	; 0x3ad8 <__gesf2>
     724:	18 16       	cp	r1, r24
     726:	5c f7       	brge	.-42     	; 0x6fe <Write_TWI+0x62>
     728:	e2 cf       	rjmp	.-60     	; 0x6ee <Write_TWI+0x52>
     72a:	80 91 05 09 	lds	r24, 0x0905	; 0x800905 <__TEXT_REGION_LENGTH__+0x7e0905>
     72e:	84 fd       	sbrc	r24, 4
     730:	2f c0       	rjmp	.+94     	; 0x790 <Write_TWI+0xf4>
     732:	b1 2e       	mov	r11, r17
     734:	c1 2f       	mov	r28, r17
     736:	da 2d       	mov	r29, r10
     738:	8c 2f       	mov	r24, r28
     73a:	8b 19       	sub	r24, r11
     73c:	80 17       	cp	r24, r16
     73e:	f8 f4       	brcc	.+62     	; 0x77e <Write_TWI+0xe2>
     740:	89 91       	ld	r24, Y+
     742:	80 93 08 09 	sts	0x0908, r24	; 0x800908 <__TEXT_REGION_LENGTH__+0x7e0908>
     746:	80 91 05 09 	lds	r24, 0x0905	; 0x800905 <__TEXT_REGION_LENGTH__+0x7e0905>
     74a:	86 fd       	sbrc	r24, 6
     74c:	12 c0       	rjmp	.+36     	; 0x772 <Write_TWI+0xd6>
     74e:	8f ef       	ldi	r24, 0xFF	; 255
     750:	c8 1a       	sub	r12, r24
     752:	d8 0a       	sbc	r13, r24
     754:	e8 0a       	sbc	r14, r24
     756:	f8 0a       	sbc	r15, r24
     758:	c7 01       	movw	r24, r14
     75a:	b6 01       	movw	r22, r12
     75c:	0e 94 54 1c 	call	0x38a8	; 0x38a8 <__floatunsisf>
     760:	20 e0       	ldi	r18, 0x00	; 0
     762:	34 e2       	ldi	r19, 0x24	; 36
     764:	44 e7       	ldi	r20, 0x74	; 116
     766:	59 e4       	ldi	r21, 0x49	; 73
     768:	0e 94 6c 1d 	call	0x3ad8	; 0x3ad8 <__gesf2>
     76c:	18 16       	cp	r1, r24
     76e:	5c f7       	brge	.-42     	; 0x746 <Write_TWI+0xaa>
     770:	be cf       	rjmp	.-132    	; 0x6ee <Write_TWI+0x52>
     772:	80 91 05 09 	lds	r24, 0x0905	; 0x800905 <__TEXT_REGION_LENGTH__+0x7e0905>
     776:	84 ff       	sbrs	r24, 4
     778:	df cf       	rjmp	.-66     	; 0x738 <Write_TWI+0x9c>
     77a:	82 e0       	ldi	r24, 0x02	; 2
     77c:	0a c0       	rjmp	.+20     	; 0x792 <Write_TWI+0xf6>
     77e:	80 91 04 09 	lds	r24, 0x0904	; 0x800904 <__TEXT_REGION_LENGTH__+0x7e0904>
     782:	83 60       	ori	r24, 0x03	; 3
     784:	80 93 04 09 	sts	0x0904, r24	; 0x800904 <__TEXT_REGION_LENGTH__+0x7e0904>
     788:	84 e0       	ldi	r24, 0x04	; 4
     78a:	03 c0       	rjmp	.+6      	; 0x792 <Write_TWI+0xf6>
     78c:	80 e0       	ldi	r24, 0x00	; 0
     78e:	01 c0       	rjmp	.+2      	; 0x792 <Write_TWI+0xf6>
     790:	81 e0       	ldi	r24, 0x01	; 1
     792:	df 91       	pop	r29
     794:	cf 91       	pop	r28
     796:	1f 91       	pop	r17
     798:	0f 91       	pop	r16
     79a:	ff 90       	pop	r15
     79c:	ef 90       	pop	r14
     79e:	df 90       	pop	r13
     7a0:	cf 90       	pop	r12
     7a2:	bf 90       	pop	r11
     7a4:	af 90       	pop	r10
     7a6:	08 95       	ret

000007a8 <Setup_LoRa>:
     7a8:	0f 93       	push	r16
     7aa:	1f 93       	push	r17
     7ac:	cf 93       	push	r28
     7ae:	df 93       	push	r29
     7b0:	1f 92       	push	r1
     7b2:	cd b7       	in	r28, 0x3d	; 61
     7b4:	de b7       	in	r29, 0x3e	; 62
     7b6:	19 82       	std	Y+1, r1	; 0x01
     7b8:	01 e0       	ldi	r16, 0x01	; 1
     7ba:	9e 01       	movw	r18, r28
     7bc:	2f 5f       	subi	r18, 0xFF	; 255
     7be:	3f 4f       	sbci	r19, 0xFF	; 255
     7c0:	42 e4       	ldi	r20, 0x42	; 66
     7c2:	65 e0       	ldi	r22, 0x05	; 5
     7c4:	81 e4       	ldi	r24, 0x41	; 65
     7c6:	0e 94 0f 02 	call	0x41e	; 0x41e <Read_SPI>
     7ca:	18 2f       	mov	r17, r24
     7cc:	20 e8       	ldi	r18, 0x80	; 128
     7ce:	41 e8       	ldi	r20, 0x81	; 129
     7d0:	65 e0       	ldi	r22, 0x05	; 5
     7d2:	81 e4       	ldi	r24, 0x41	; 65
     7d4:	0e 94 af 02 	call	0x55e	; 0x55e <Write_SPI>
     7d8:	81 23       	and	r24, r17
     7da:	18 2f       	mov	r17, r24
     7dc:	12 70       	andi	r17, 0x02	; 2
     7de:	24 ee       	ldi	r18, 0xE4	; 228
     7e0:	46 e8       	ldi	r20, 0x86	; 134
     7e2:	65 e0       	ldi	r22, 0x05	; 5
     7e4:	81 e4       	ldi	r24, 0x41	; 65
     7e6:	0e 94 af 02 	call	0x55e	; 0x55e <Write_SPI>
     7ea:	18 23       	and	r17, r24
     7ec:	20 ec       	ldi	r18, 0xC0	; 192
     7ee:	47 e8       	ldi	r20, 0x87	; 135
     7f0:	65 e0       	ldi	r22, 0x05	; 5
     7f2:	81 e4       	ldi	r24, 0x41	; 65
     7f4:	0e 94 af 02 	call	0x55e	; 0x55e <Write_SPI>
     7f8:	18 23       	and	r17, r24
     7fa:	20 e0       	ldi	r18, 0x00	; 0
     7fc:	48 e8       	ldi	r20, 0x88	; 136
     7fe:	65 e0       	ldi	r22, 0x05	; 5
     800:	81 e4       	ldi	r24, 0x41	; 65
     802:	0e 94 af 02 	call	0x55e	; 0x55e <Write_SPI>
     806:	18 23       	and	r17, r24
     808:	25 e0       	ldi	r18, 0x05	; 5
     80a:	41 e8       	ldi	r20, 0x81	; 129
     80c:	65 e0       	ldi	r22, 0x05	; 5
     80e:	81 e4       	ldi	r24, 0x41	; 65
     810:	0e 94 af 02 	call	0x55e	; 0x55e <Write_SPI>
     814:	18 23       	and	r17, r24
     816:	21 e1       	ldi	r18, 0x11	; 17
     818:	49 e8       	ldi	r20, 0x89	; 137
     81a:	65 e0       	ldi	r22, 0x05	; 5
     81c:	81 e4       	ldi	r24, 0x41	; 65
     81e:	0e 94 af 02 	call	0x55e	; 0x55e <Write_SPI>
     822:	18 23       	and	r17, r24
     824:	81 e0       	ldi	r24, 0x01	; 1
     826:	12 30       	cpi	r17, 0x02	; 2
     828:	09 f0       	breq	.+2      	; 0x82c <Setup_LoRa+0x84>
     82a:	80 e0       	ldi	r24, 0x00	; 0
     82c:	0f 90       	pop	r0
     82e:	df 91       	pop	r29
     830:	cf 91       	pop	r28
     832:	1f 91       	pop	r17
     834:	0f 91       	pop	r16
     836:	08 95       	ret

00000838 <Read_LoRa>:
     838:	ef 92       	push	r14
     83a:	ff 92       	push	r15
     83c:	0f 93       	push	r16
     83e:	1f 93       	push	r17
     840:	cf 93       	push	r28
     842:	df 93       	push	r29
     844:	cd b7       	in	r28, 0x3d	; 61
     846:	de b7       	in	r29, 0x3e	; 62
     848:	26 97       	sbiw	r28, 0x06	; 6
     84a:	cd bf       	out	0x3d, r28	; 61
     84c:	de bf       	out	0x3e, r29	; 62
     84e:	1e 82       	std	Y+6, r1	; 0x06
     850:	01 e0       	ldi	r16, 0x01	; 1
     852:	9e 01       	movw	r18, r28
     854:	2a 5f       	subi	r18, 0xFA	; 250
     856:	3f 4f       	sbci	r19, 0xFF	; 255
     858:	43 e1       	ldi	r20, 0x13	; 19
     85a:	65 e0       	ldi	r22, 0x05	; 5
     85c:	81 e4       	ldi	r24, 0x41	; 65
     85e:	0e 94 0f 02 	call	0x41e	; 0x41e <Read_SPI>
     862:	1e 81       	ldd	r17, Y+6	; 0x06
     864:	81 2f       	mov	r24, r17
     866:	90 e0       	ldi	r25, 0x00	; 0
     868:	0e 94 e2 23 	call	0x47c4	; 0x47c4 <malloc>
     86c:	7c 01       	movw	r14, r24
     86e:	15 30       	cpi	r17, 0x05	; 5
     870:	70 f1       	brcs	.+92     	; 0x8ce <Read_LoRa+0x96>
     872:	1d 82       	std	Y+5, r1	; 0x05
     874:	9e 01       	movw	r18, r28
     876:	2b 5f       	subi	r18, 0xFB	; 251
     878:	3f 4f       	sbci	r19, 0xFF	; 255
     87a:	40 e1       	ldi	r20, 0x10	; 16
     87c:	65 e0       	ldi	r22, 0x05	; 5
     87e:	81 e4       	ldi	r24, 0x41	; 65
     880:	0e 94 0f 02 	call	0x41e	; 0x41e <Read_SPI>
     884:	2d 81       	ldd	r18, Y+5	; 0x05
     886:	4d e8       	ldi	r20, 0x8D	; 141
     888:	65 e0       	ldi	r22, 0x05	; 5
     88a:	81 e4       	ldi	r24, 0x41	; 65
     88c:	0e 94 af 02 	call	0x55e	; 0x55e <Write_SPI>
     890:	0e 81       	ldd	r16, Y+6	; 0x06
     892:	97 01       	movw	r18, r14
     894:	40 e0       	ldi	r20, 0x00	; 0
     896:	65 e0       	ldi	r22, 0x05	; 5
     898:	81 e4       	ldi	r24, 0x41	; 65
     89a:	0e 94 0f 02 	call	0x41e	; 0x41e <Read_SPI>
     89e:	f7 01       	movw	r30, r14
     8a0:	80 81       	ld	r24, Z
     8a2:	85 33       	cpi	r24, 0x35	; 53
     8a4:	a1 f4       	brne	.+40     	; 0x8ce <Read_LoRa+0x96>
     8a6:	81 81       	ldd	r24, Z+1	; 0x01
     8a8:	82 33       	cpi	r24, 0x32	; 50
     8aa:	89 f4       	brne	.+34     	; 0x8ce <Read_LoRa+0x96>
     8ac:	82 81       	ldd	r24, Z+2	; 0x02
     8ae:	89 83       	std	Y+1, r24	; 0x01
     8b0:	83 81       	ldd	r24, Z+3	; 0x03
     8b2:	8a 83       	std	Y+2, r24	; 0x02
     8b4:	84 81       	ldd	r24, Z+4	; 0x04
     8b6:	8b 83       	std	Y+3, r24	; 0x03
     8b8:	1c 82       	std	Y+4, r1	; 0x04
     8ba:	ce 01       	movw	r24, r28
     8bc:	01 96       	adiw	r24, 0x01	; 1
     8be:	0e 94 5f 26 	call	0x4cbe	; 0x4cbe <atoi>
     8c2:	8c 01       	movw	r16, r24
     8c4:	c7 01       	movw	r24, r14
     8c6:	0e 94 7a 24 	call	0x48f4	; 0x48f4 <free>
     8ca:	c8 01       	movw	r24, r16
     8cc:	05 c0       	rjmp	.+10     	; 0x8d8 <Read_LoRa+0xa0>
     8ce:	c7 01       	movw	r24, r14
     8d0:	0e 94 7a 24 	call	0x48f4	; 0x48f4 <free>
     8d4:	80 e0       	ldi	r24, 0x00	; 0
     8d6:	90 e0       	ldi	r25, 0x00	; 0
     8d8:	26 96       	adiw	r28, 0x06	; 6
     8da:	cd bf       	out	0x3d, r28	; 61
     8dc:	de bf       	out	0x3e, r29	; 62
     8de:	df 91       	pop	r29
     8e0:	cf 91       	pop	r28
     8e2:	1f 91       	pop	r17
     8e4:	0f 91       	pop	r16
     8e6:	ff 90       	pop	r15
     8e8:	ef 90       	pop	r14
     8ea:	08 95       	ret

000008ec <Write_Display>:
     8ec:	cf 93       	push	r28
     8ee:	df 93       	push	r29
     8f0:	1f 92       	push	r1
     8f2:	cd b7       	in	r28, 0x3d	; 61
     8f4:	de b7       	in	r29, 0x3e	; 62
     8f6:	89 83       	std	Y+1, r24	; 0x01
     8f8:	21 e0       	ldi	r18, 0x01	; 1
     8fa:	ae 01       	movw	r20, r28
     8fc:	4f 5f       	subi	r20, 0xFF	; 255
     8fe:	5f 4f       	sbci	r21, 0xFF	; 255
     900:	60 e8       	ldi	r22, 0x80	; 128
     902:	8c e3       	ldi	r24, 0x3C	; 60
     904:	0e 94 4e 03 	call	0x69c	; 0x69c <Write_TWI>
     908:	91 e0       	ldi	r25, 0x01	; 1
     90a:	84 30       	cpi	r24, 0x04	; 4
     90c:	09 f0       	breq	.+2      	; 0x910 <Write_Display+0x24>
     90e:	90 e0       	ldi	r25, 0x00	; 0
     910:	89 2f       	mov	r24, r25
     912:	0f 90       	pop	r0
     914:	df 91       	pop	r29
     916:	cf 91       	pop	r28
     918:	08 95       	ret

0000091a <Write_Display_Double>:
     91a:	cf 93       	push	r28
     91c:	df 93       	push	r29
     91e:	00 d0       	rcall	.+0      	; 0x920 <Write_Display_Double+0x6>
     920:	cd b7       	in	r28, 0x3d	; 61
     922:	de b7       	in	r29, 0x3e	; 62
     924:	89 83       	std	Y+1, r24	; 0x01
     926:	6a 83       	std	Y+2, r22	; 0x02
     928:	22 e0       	ldi	r18, 0x02	; 2
     92a:	ae 01       	movw	r20, r28
     92c:	4f 5f       	subi	r20, 0xFF	; 255
     92e:	5f 4f       	sbci	r21, 0xFF	; 255
     930:	60 e0       	ldi	r22, 0x00	; 0
     932:	8c e3       	ldi	r24, 0x3C	; 60
     934:	0e 94 4e 03 	call	0x69c	; 0x69c <Write_TWI>
     938:	91 e0       	ldi	r25, 0x01	; 1
     93a:	84 30       	cpi	r24, 0x04	; 4
     93c:	09 f0       	breq	.+2      	; 0x940 <Write_Display_Double+0x26>
     93e:	90 e0       	ldi	r25, 0x00	; 0
     940:	89 2f       	mov	r24, r25
     942:	0f 90       	pop	r0
     944:	0f 90       	pop	r0
     946:	df 91       	pop	r29
     948:	cf 91       	pop	r28
     94a:	08 95       	ret

0000094c <Write_Character>:
     94c:	cf 92       	push	r12
     94e:	df 92       	push	r13
     950:	ef 92       	push	r14
     952:	0f 93       	push	r16
     954:	1f 93       	push	r17
     956:	cf 93       	push	r28
     958:	df 93       	push	r29
     95a:	cd b7       	in	r28, 0x3d	; 61
     95c:	de b7       	in	r29, 0x3e	; 62
     95e:	cb 57       	subi	r28, 0x7B	; 123
     960:	d1 09       	sbc	r29, r1
     962:	cd bf       	out	0x3d, r28	; 61
     964:	de bf       	out	0x3e, r29	; 62
     966:	ea 96       	adiw	r28, 0x3a	; 58
     968:	1f ae       	std	Y+63, r1	; 0x3f
     96a:	ea 97       	sbiw	r28, 0x3a	; 58
     96c:	eb 96       	adiw	r28, 0x3b	; 59
     96e:	1f ae       	std	Y+63, r1	; 0x3f
     970:	eb 97       	sbiw	r28, 0x3b	; 59
     972:	ec 96       	adiw	r28, 0x3c	; 60
     974:	1f ae       	std	Y+63, r1	; 0x3f
     976:	ec 97       	sbiw	r28, 0x3c	; 60
     978:	e7 96       	adiw	r28, 0x37	; 55
     97a:	1f ae       	std	Y+63, r1	; 0x3f
     97c:	e7 97       	sbiw	r28, 0x37	; 55
     97e:	90 e4       	ldi	r25, 0x40	; 64
     980:	e8 96       	adiw	r28, 0x38	; 56
     982:	9f af       	std	Y+63, r25	; 0x3f
     984:	e8 97       	sbiw	r28, 0x38	; 56
     986:	e9 96       	adiw	r28, 0x39	; 57
     988:	1f ae       	std	Y+63, r1	; 0x3f
     98a:	e9 97       	sbiw	r28, 0x39	; 57
     98c:	20 91 06 40 	lds	r18, 0x4006	; 0x804006 <__malloc_margin+0x2>
     990:	30 91 07 40 	lds	r19, 0x4007	; 0x804007 <__malloc_margin+0x3>
     994:	40 91 08 40 	lds	r20, 0x4008	; 0x804008 <__malloc_margin+0x4>
     998:	e6 96       	adiw	r28, 0x36	; 54
     99a:	2d af       	std	Y+61, r18	; 0x3d
     99c:	3e af       	std	Y+62, r19	; 0x3e
     99e:	4f af       	std	Y+63, r20	; 0x3f
     9a0:	e6 97       	sbiw	r28, 0x36	; 54
     9a2:	20 91 09 40 	lds	r18, 0x4009	; 0x804009 <__malloc_margin+0x5>
     9a6:	30 91 0a 40 	lds	r19, 0x400A	; 0x80400a <__malloc_margin+0x6>
     9aa:	40 91 0b 40 	lds	r20, 0x400B	; 0x80400b <__malloc_margin+0x7>
     9ae:	e3 96       	adiw	r28, 0x33	; 51
     9b0:	2d af       	std	Y+61, r18	; 0x3d
     9b2:	3e af       	std	Y+62, r19	; 0x3e
     9b4:	4f af       	std	Y+63, r20	; 0x3f
     9b6:	e3 97       	sbiw	r28, 0x33	; 51
     9b8:	20 91 0c 40 	lds	r18, 0x400C	; 0x80400c <__malloc_margin+0x8>
     9bc:	30 91 0d 40 	lds	r19, 0x400D	; 0x80400d <__malloc_margin+0x9>
     9c0:	40 91 0e 40 	lds	r20, 0x400E	; 0x80400e <__malloc_margin+0xa>
     9c4:	e0 96       	adiw	r28, 0x30	; 48
     9c6:	2d af       	std	Y+61, r18	; 0x3d
     9c8:	3e af       	std	Y+62, r19	; 0x3e
     9ca:	4f af       	std	Y+63, r20	; 0x3f
     9cc:	e0 97       	sbiw	r28, 0x30	; 48
     9ce:	95 e0       	ldi	r25, 0x05	; 5
     9d0:	ef e0       	ldi	r30, 0x0F	; 15
     9d2:	f0 e4       	ldi	r31, 0x40	; 64
     9d4:	de 01       	movw	r26, r28
     9d6:	dd 96       	adiw	r26, 0x3d	; 61
     9d8:	01 90       	ld	r0, Z+
     9da:	0d 92       	st	X+, r0
     9dc:	9a 95       	dec	r25
     9de:	e1 f7       	brne	.-8      	; 0x9d8 <Write_Character+0x8c>
     9e0:	40 91 14 40 	lds	r20, 0x4014	; 0x804014 <__malloc_margin+0x10>
     9e4:	50 91 15 40 	lds	r21, 0x4015	; 0x804015 <__malloc_margin+0x11>
     9e8:	60 91 16 40 	lds	r22, 0x4016	; 0x804016 <__malloc_margin+0x12>
     9ec:	70 91 17 40 	lds	r23, 0x4017	; 0x804017 <__malloc_margin+0x13>
     9f0:	aa 96       	adiw	r28, 0x2a	; 42
     9f2:	4c af       	std	Y+60, r20	; 0x3c
     9f4:	5d af       	std	Y+61, r21	; 0x3d
     9f6:	6e af       	std	Y+62, r22	; 0x3e
     9f8:	7f af       	std	Y+63, r23	; 0x3f
     9fa:	aa 97       	sbiw	r28, 0x2a	; 42
     9fc:	c0 90 18 40 	lds	r12, 0x4018	; 0x804018 <__malloc_margin+0x14>
     a00:	d0 90 19 40 	lds	r13, 0x4019	; 0x804019 <__malloc_margin+0x15>
     a04:	e0 90 1a 40 	lds	r14, 0x401A	; 0x80401a <__malloc_margin+0x16>
     a08:	ad 96       	adiw	r28, 0x2d	; 45
     a0a:	cd ae       	std	Y+61, r12	; 0x3d
     a0c:	de ae       	std	Y+62, r13	; 0x3e
     a0e:	ef ae       	std	Y+63, r14	; 0x3f
     a10:	ad 97       	sbiw	r28, 0x2d	; 45
     a12:	00 91 1b 40 	lds	r16, 0x401B	; 0x80401b <__malloc_margin+0x17>
     a16:	10 91 1c 40 	lds	r17, 0x401C	; 0x80401c <__malloc_margin+0x18>
     a1a:	20 91 1d 40 	lds	r18, 0x401D	; 0x80401d <__malloc_margin+0x19>
     a1e:	30 91 1e 40 	lds	r19, 0x401E	; 0x80401e <__malloc_margin+0x1a>
     a22:	a6 96       	adiw	r28, 0x26	; 38
     a24:	0c af       	std	Y+60, r16	; 0x3c
     a26:	1d af       	std	Y+61, r17	; 0x3d
     a28:	2e af       	std	Y+62, r18	; 0x3e
     a2a:	3f af       	std	Y+63, r19	; 0x3f
     a2c:	a6 97       	sbiw	r28, 0x26	; 38
     a2e:	95 e0       	ldi	r25, 0x05	; 5
     a30:	ef e1       	ldi	r30, 0x1F	; 31
     a32:	f0 e4       	ldi	r31, 0x40	; 64
     a34:	de 01       	movw	r26, r28
     a36:	d8 96       	adiw	r26, 0x38	; 56
     a38:	01 90       	ld	r0, Z+
     a3a:	0d 92       	st	X+, r0
     a3c:	9a 95       	dec	r25
     a3e:	e1 f7       	brne	.-8      	; 0xa38 <Write_Character+0xec>
     a40:	95 e0       	ldi	r25, 0x05	; 5
     a42:	e4 e2       	ldi	r30, 0x24	; 36
     a44:	f0 e4       	ldi	r31, 0x40	; 64
     a46:	de 01       	movw	r26, r28
     a48:	d3 96       	adiw	r26, 0x33	; 51
     a4a:	01 90       	ld	r0, Z+
     a4c:	0d 92       	st	X+, r0
     a4e:	9a 95       	dec	r25
     a50:	e1 f7       	brne	.-8      	; 0xa4a <Write_Character+0xfe>
     a52:	00 91 29 40 	lds	r16, 0x4029	; 0x804029 <__malloc_margin+0x25>
     a56:	10 91 2a 40 	lds	r17, 0x402A	; 0x80402a <__malloc_margin+0x26>
     a5a:	20 91 2b 40 	lds	r18, 0x402B	; 0x80402b <__malloc_margin+0x27>
     a5e:	30 91 2c 40 	lds	r19, 0x402C	; 0x80402c <__malloc_margin+0x28>
     a62:	a2 96       	adiw	r28, 0x22	; 34
     a64:	0c af       	std	Y+60, r16	; 0x3c
     a66:	1d af       	std	Y+61, r17	; 0x3d
     a68:	2e af       	std	Y+62, r18	; 0x3e
     a6a:	3f af       	std	Y+63, r19	; 0x3f
     a6c:	a2 97       	sbiw	r28, 0x22	; 34
     a6e:	95 e0       	ldi	r25, 0x05	; 5
     a70:	ed e2       	ldi	r30, 0x2D	; 45
     a72:	f0 e4       	ldi	r31, 0x40	; 64
     a74:	de 01       	movw	r26, r28
     a76:	9e 96       	adiw	r26, 0x2e	; 46
     a78:	01 90       	ld	r0, Z+
     a7a:	0d 92       	st	X+, r0
     a7c:	9a 95       	dec	r25
     a7e:	e1 f7       	brne	.-8      	; 0xa78 <Write_Character+0x12c>
     a80:	96 e0       	ldi	r25, 0x06	; 6
     a82:	e2 e3       	ldi	r30, 0x32	; 50
     a84:	f0 e4       	ldi	r31, 0x40	; 64
     a86:	de 01       	movw	r26, r28
     a88:	1f 96       	adiw	r26, 0x0f	; 15
     a8a:	01 90       	ld	r0, Z+
     a8c:	0d 92       	st	X+, r0
     a8e:	9a 95       	dec	r25
     a90:	e1 f7       	brne	.-8      	; 0xa8a <Write_Character+0x13e>
     a92:	95 e0       	ldi	r25, 0x05	; 5
     a94:	e8 e3       	ldi	r30, 0x38	; 56
     a96:	f0 e4       	ldi	r31, 0x40	; 64
     a98:	de 01       	movw	r26, r28
     a9a:	99 96       	adiw	r26, 0x29	; 41
     a9c:	01 90       	ld	r0, Z+
     a9e:	0d 92       	st	X+, r0
     aa0:	9a 95       	dec	r25
     aa2:	e1 f7       	brne	.-8      	; 0xa9c <Write_Character+0x150>
     aa4:	95 e0       	ldi	r25, 0x05	; 5
     aa6:	ed e3       	ldi	r30, 0x3D	; 61
     aa8:	f0 e4       	ldi	r31, 0x40	; 64
     aaa:	de 01       	movw	r26, r28
     aac:	94 96       	adiw	r26, 0x24	; 36
     aae:	01 90       	ld	r0, Z+
     ab0:	0d 92       	st	X+, r0
     ab2:	9a 95       	dec	r25
     ab4:	e1 f7       	brne	.-8      	; 0xaae <Write_Character+0x162>
     ab6:	95 e0       	ldi	r25, 0x05	; 5
     ab8:	e2 e4       	ldi	r30, 0x42	; 66
     aba:	f0 e4       	ldi	r31, 0x40	; 64
     abc:	de 01       	movw	r26, r28
     abe:	5f 96       	adiw	r26, 0x1f	; 31
     ac0:	01 90       	ld	r0, Z+
     ac2:	0d 92       	st	X+, r0
     ac4:	9a 95       	dec	r25
     ac6:	e1 f7       	brne	.-8      	; 0xac0 <Write_Character+0x174>
     ac8:	97 e0       	ldi	r25, 0x07	; 7
     aca:	e7 e4       	ldi	r30, 0x47	; 71
     acc:	f0 e4       	ldi	r31, 0x40	; 64
     ace:	de 01       	movw	r26, r28
     ad0:	18 96       	adiw	r26, 0x08	; 8
     ad2:	01 90       	ld	r0, Z+
     ad4:	0d 92       	st	X+, r0
     ad6:	9a 95       	dec	r25
     ad8:	e1 f7       	brne	.-8      	; 0xad2 <Write_Character+0x186>
     ada:	95 e0       	ldi	r25, 0x05	; 5
     adc:	ee e4       	ldi	r30, 0x4E	; 78
     ade:	f0 e4       	ldi	r31, 0x40	; 64
     ae0:	de 01       	movw	r26, r28
     ae2:	5a 96       	adiw	r26, 0x1a	; 26
     ae4:	01 90       	ld	r0, Z+
     ae6:	0d 92       	st	X+, r0
     ae8:	9a 95       	dec	r25
     aea:	e1 f7       	brne	.-8      	; 0xae4 <Write_Character+0x198>
     aec:	00 91 53 40 	lds	r16, 0x4053	; 0x804053 <__malloc_margin+0x4f>
     af0:	10 91 54 40 	lds	r17, 0x4054	; 0x804054 <__malloc_margin+0x50>
     af4:	20 91 55 40 	lds	r18, 0x4055	; 0x804055 <__malloc_margin+0x51>
     af8:	30 91 56 40 	lds	r19, 0x4056	; 0x804056 <__malloc_margin+0x52>
     afc:	6e 96       	adiw	r28, 0x1e	; 30
     afe:	0c af       	std	Y+60, r16	; 0x3c
     b00:	1d af       	std	Y+61, r17	; 0x3d
     b02:	2e af       	std	Y+62, r18	; 0x3e
     b04:	3f af       	std	Y+63, r19	; 0x3f
     b06:	6e 97       	sbiw	r28, 0x1e	; 30
     b08:	00 91 57 40 	lds	r16, 0x4057	; 0x804057 <__malloc_margin+0x53>
     b0c:	10 91 58 40 	lds	r17, 0x4058	; 0x804058 <__malloc_margin+0x54>
     b10:	20 91 59 40 	lds	r18, 0x4059	; 0x804059 <__malloc_margin+0x55>
     b14:	30 91 5a 40 	lds	r19, 0x405A	; 0x80405a <__malloc_margin+0x56>
     b18:	6a 96       	adiw	r28, 0x1a	; 26
     b1a:	0c af       	std	Y+60, r16	; 0x3c
     b1c:	1d af       	std	Y+61, r17	; 0x3d
     b1e:	2e af       	std	Y+62, r18	; 0x3e
     b20:	3f af       	std	Y+63, r19	; 0x3f
     b22:	6a 97       	sbiw	r28, 0x1a	; 26
     b24:	00 91 5b 40 	lds	r16, 0x405B	; 0x80405b <__malloc_margin+0x57>
     b28:	10 91 5c 40 	lds	r17, 0x405C	; 0x80405c <__malloc_margin+0x58>
     b2c:	20 91 5d 40 	lds	r18, 0x405D	; 0x80405d <__malloc_margin+0x59>
     b30:	30 91 5e 40 	lds	r19, 0x405E	; 0x80405e <__malloc_margin+0x5a>
     b34:	66 96       	adiw	r28, 0x16	; 22
     b36:	0c af       	std	Y+60, r16	; 0x3c
     b38:	1d af       	std	Y+61, r17	; 0x3d
     b3a:	2e af       	std	Y+62, r18	; 0x3e
     b3c:	3f af       	std	Y+63, r19	; 0x3f
     b3e:	66 97       	sbiw	r28, 0x16	; 22
     b40:	62 96       	adiw	r28, 0x12	; 18
     b42:	4c af       	std	Y+60, r20	; 0x3c
     b44:	5d af       	std	Y+61, r21	; 0x3d
     b46:	6e af       	std	Y+62, r22	; 0x3e
     b48:	7f af       	std	Y+63, r23	; 0x3f
     b4a:	62 97       	sbiw	r28, 0x12	; 18
     b4c:	95 e0       	ldi	r25, 0x05	; 5
     b4e:	ef e5       	ldi	r30, 0x5F	; 95
     b50:	f0 e4       	ldi	r31, 0x40	; 64
     b52:	de 01       	movw	r26, r28
     b54:	55 96       	adiw	r26, 0x15	; 21
     b56:	01 90       	ld	r0, Z+
     b58:	0d 92       	st	X+, r0
     b5a:	9a 95       	dec	r25
     b5c:	e1 f7       	brne	.-8      	; 0xb56 <Write_Character+0x20a>
     b5e:	97 e0       	ldi	r25, 0x07	; 7
     b60:	e4 e6       	ldi	r30, 0x64	; 100
     b62:	f0 e4       	ldi	r31, 0x40	; 64
     b64:	de 01       	movw	r26, r28
     b66:	11 96       	adiw	r26, 0x01	; 1
     b68:	01 90       	ld	r0, Z+
     b6a:	0d 92       	st	X+, r0
     b6c:	9a 95       	dec	r25
     b6e:	e1 f7       	brne	.-8      	; 0xb68 <Write_Character+0x21c>
     b70:	40 91 6b 40 	lds	r20, 0x406B	; 0x80406b <__malloc_margin+0x67>
     b74:	50 91 6c 40 	lds	r21, 0x406C	; 0x80406c <__malloc_margin+0x68>
     b78:	60 91 6d 40 	lds	r22, 0x406D	; 0x80406d <__malloc_margin+0x69>
     b7c:	70 91 6e 40 	lds	r23, 0x406E	; 0x80406e <__malloc_margin+0x6a>
     b80:	2e 96       	adiw	r28, 0x0e	; 14
     b82:	4c af       	std	Y+60, r20	; 0x3c
     b84:	5d af       	std	Y+61, r21	; 0x3d
     b86:	6e af       	std	Y+62, r22	; 0x3e
     b88:	7f af       	std	Y+63, r23	; 0x3f
     b8a:	2e 97       	sbiw	r28, 0x0e	; 14
     b8c:	40 91 6f 40 	lds	r20, 0x406F	; 0x80406f <__malloc_margin+0x6b>
     b90:	50 91 70 40 	lds	r21, 0x4070	; 0x804070 <__malloc_margin+0x6c>
     b94:	60 91 71 40 	lds	r22, 0x4071	; 0x804071 <__malloc_margin+0x6d>
     b98:	70 91 72 40 	lds	r23, 0x4072	; 0x804072 <__malloc_margin+0x6e>
     b9c:	2a 96       	adiw	r28, 0x0a	; 10
     b9e:	4c af       	std	Y+60, r20	; 0x3c
     ba0:	5d af       	std	Y+61, r21	; 0x3d
     ba2:	6e af       	std	Y+62, r22	; 0x3e
     ba4:	7f af       	std	Y+63, r23	; 0x3f
     ba6:	2a 97       	sbiw	r28, 0x0a	; 10
     ba8:	40 91 73 40 	lds	r20, 0x4073	; 0x804073 <__malloc_margin+0x6f>
     bac:	50 91 74 40 	lds	r21, 0x4074	; 0x804074 <__malloc_margin+0x70>
     bb0:	60 91 75 40 	lds	r22, 0x4075	; 0x804075 <__malloc_margin+0x71>
     bb4:	70 91 76 40 	lds	r23, 0x4076	; 0x804076 <__malloc_margin+0x72>
     bb8:	26 96       	adiw	r28, 0x06	; 6
     bba:	4c af       	std	Y+60, r20	; 0x3c
     bbc:	5d af       	std	Y+61, r21	; 0x3d
     bbe:	6e af       	std	Y+62, r22	; 0x3e
     bc0:	7f af       	std	Y+63, r23	; 0x3f
     bc2:	26 97       	sbiw	r28, 0x06	; 6
     bc4:	90 e0       	ldi	r25, 0x00	; 0
     bc6:	fc 01       	movw	r30, r24
     bc8:	b4 97       	sbiw	r30, 0x24	; 36
     bca:	ef 32       	cpi	r30, 0x2F	; 47
     bcc:	f1 05       	cpc	r31, r1
     bce:	08 f0       	brcs	.+2      	; 0xbd2 <Write_Character+0x286>
     bd0:	86 c0       	rjmp	.+268    	; 0xcde <Write_Character+0x392>
     bd2:	e6 58       	subi	r30, 0x86	; 134
     bd4:	ff 4f       	sbci	r31, 0xFF	; 255
     bd6:	0c 94 83 23 	jmp	0x4706	; 0x4706 <__tablejump2__>
     bda:	23 e0       	ldi	r18, 0x03	; 3
     bdc:	ae 01       	movw	r20, r28
     bde:	46 59       	subi	r20, 0x96	; 150
     be0:	5f 4f       	sbci	r21, 0xFF	; 255
     be2:	86 c0       	rjmp	.+268    	; 0xcf0 <Write_Character+0x3a4>
     be4:	24 e0       	ldi	r18, 0x04	; 4
     be6:	ae 01       	movw	r20, r28
     be8:	4e 59       	subi	r20, 0x9E	; 158
     bea:	5f 4f       	sbci	r21, 0xFF	; 255
     bec:	81 c0       	rjmp	.+258    	; 0xcf0 <Write_Character+0x3a4>
     bee:	25 e0       	ldi	r18, 0x05	; 5
     bf0:	ae 01       	movw	r20, r28
     bf2:	48 5c       	subi	r20, 0xC8	; 200
     bf4:	5f 4f       	sbci	r21, 0xFF	; 255
     bf6:	7c c0       	rjmp	.+248    	; 0xcf0 <Write_Character+0x3a4>
     bf8:	25 e0       	ldi	r18, 0x05	; 5
     bfa:	ae 01       	movw	r20, r28
     bfc:	4d 5c       	subi	r20, 0xCD	; 205
     bfe:	5f 4f       	sbci	r21, 0xFF	; 255
     c00:	77 c0       	rjmp	.+238    	; 0xcf0 <Write_Character+0x3a4>
     c02:	24 e0       	ldi	r18, 0x04	; 4
     c04:	ae 01       	movw	r20, r28
     c06:	42 5a       	subi	r20, 0xA2	; 162
     c08:	5f 4f       	sbci	r21, 0xFF	; 255
     c0a:	72 c0       	rjmp	.+228    	; 0xcf0 <Write_Character+0x3a4>
     c0c:	25 e0       	ldi	r18, 0x05	; 5
     c0e:	ae 01       	movw	r20, r28
     c10:	42 5d       	subi	r20, 0xD2	; 210
     c12:	5f 4f       	sbci	r21, 0xFF	; 255
     c14:	6d c0       	rjmp	.+218    	; 0xcf0 <Write_Character+0x3a4>
     c16:	26 e0       	ldi	r18, 0x06	; 6
     c18:	ae 01       	movw	r20, r28
     c1a:	41 5f       	subi	r20, 0xF1	; 241
     c1c:	5f 4f       	sbci	r21, 0xFF	; 255
     c1e:	68 c0       	rjmp	.+208    	; 0xcf0 <Write_Character+0x3a4>
     c20:	25 e0       	ldi	r18, 0x05	; 5
     c22:	ae 01       	movw	r20, r28
     c24:	47 5d       	subi	r20, 0xD7	; 215
     c26:	5f 4f       	sbci	r21, 0xFF	; 255
     c28:	63 c0       	rjmp	.+198    	; 0xcf0 <Write_Character+0x3a4>
     c2a:	25 e0       	ldi	r18, 0x05	; 5
     c2c:	ae 01       	movw	r20, r28
     c2e:	4c 5d       	subi	r20, 0xDC	; 220
     c30:	5f 4f       	sbci	r21, 0xFF	; 255
     c32:	5e c0       	rjmp	.+188    	; 0xcf0 <Write_Character+0x3a4>
     c34:	23 e0       	ldi	r18, 0x03	; 3
     c36:	ae 01       	movw	r20, r28
     c38:	4a 58       	subi	r20, 0x8A	; 138
     c3a:	5f 4f       	sbci	r21, 0xFF	; 255
     c3c:	59 c0       	rjmp	.+178    	; 0xcf0 <Write_Character+0x3a4>
     c3e:	25 e0       	ldi	r18, 0x05	; 5
     c40:	ae 01       	movw	r20, r28
     c42:	41 5e       	subi	r20, 0xE1	; 225
     c44:	5f 4f       	sbci	r21, 0xFF	; 255
     c46:	54 c0       	rjmp	.+168    	; 0xcf0 <Write_Character+0x3a4>
     c48:	27 e0       	ldi	r18, 0x07	; 7
     c4a:	ae 01       	movw	r20, r28
     c4c:	48 5f       	subi	r20, 0xF8	; 248
     c4e:	5f 4f       	sbci	r21, 0xFF	; 255
     c50:	4f c0       	rjmp	.+158    	; 0xcf0 <Write_Character+0x3a4>
     c52:	25 e0       	ldi	r18, 0x05	; 5
     c54:	ae 01       	movw	r20, r28
     c56:	46 5e       	subi	r20, 0xE6	; 230
     c58:	5f 4f       	sbci	r21, 0xFF	; 255
     c5a:	4a c0       	rjmp	.+148    	; 0xcf0 <Write_Character+0x3a4>
     c5c:	24 e0       	ldi	r18, 0x04	; 4
     c5e:	ae 01       	movw	r20, r28
     c60:	46 5a       	subi	r20, 0xA6	; 166
     c62:	5f 4f       	sbci	r21, 0xFF	; 255
     c64:	45 c0       	rjmp	.+138    	; 0xcf0 <Write_Character+0x3a4>
     c66:	24 e0       	ldi	r18, 0x04	; 4
     c68:	ae 01       	movw	r20, r28
     c6a:	4a 5a       	subi	r20, 0xAA	; 170
     c6c:	5f 4f       	sbci	r21, 0xFF	; 255
     c6e:	40 c0       	rjmp	.+128    	; 0xcf0 <Write_Character+0x3a4>
     c70:	24 e0       	ldi	r18, 0x04	; 4
     c72:	ae 01       	movw	r20, r28
     c74:	4e 5a       	subi	r20, 0xAE	; 174
     c76:	5f 4f       	sbci	r21, 0xFF	; 255
     c78:	3b c0       	rjmp	.+118    	; 0xcf0 <Write_Character+0x3a4>
     c7a:	24 e0       	ldi	r18, 0x04	; 4
     c7c:	ae 01       	movw	r20, r28
     c7e:	42 5b       	subi	r20, 0xB2	; 178
     c80:	5f 4f       	sbci	r21, 0xFF	; 255
     c82:	36 c0       	rjmp	.+108    	; 0xcf0 <Write_Character+0x3a4>
     c84:	25 e0       	ldi	r18, 0x05	; 5
     c86:	ae 01       	movw	r20, r28
     c88:	4b 5e       	subi	r20, 0xEB	; 235
     c8a:	5f 4f       	sbci	r21, 0xFF	; 255
     c8c:	31 c0       	rjmp	.+98     	; 0xcf0 <Write_Character+0x3a4>
     c8e:	27 e0       	ldi	r18, 0x07	; 7
     c90:	ae 01       	movw	r20, r28
     c92:	4f 5f       	subi	r20, 0xFF	; 255
     c94:	5f 4f       	sbci	r21, 0xFF	; 255
     c96:	2c c0       	rjmp	.+88     	; 0xcf0 <Write_Character+0x3a4>
     c98:	24 e0       	ldi	r18, 0x04	; 4
     c9a:	ae 01       	movw	r20, r28
     c9c:	46 5b       	subi	r20, 0xB6	; 182
     c9e:	5f 4f       	sbci	r21, 0xFF	; 255
     ca0:	27 c0       	rjmp	.+78     	; 0xcf0 <Write_Character+0x3a4>
     ca2:	24 e0       	ldi	r18, 0x04	; 4
     ca4:	ae 01       	movw	r20, r28
     ca6:	4a 5b       	subi	r20, 0xBA	; 186
     ca8:	5f 4f       	sbci	r21, 0xFF	; 255
     caa:	22 c0       	rjmp	.+68     	; 0xcf0 <Write_Character+0x3a4>
     cac:	24 e0       	ldi	r18, 0x04	; 4
     cae:	ae 01       	movw	r20, r28
     cb0:	4e 5b       	subi	r20, 0xBE	; 190
     cb2:	5f 4f       	sbci	r21, 0xFF	; 255
     cb4:	1d c0       	rjmp	.+58     	; 0xcf0 <Write_Character+0x3a4>
     cb6:	23 e0       	ldi	r18, 0x03	; 3
     cb8:	ae 01       	movw	r20, r28
     cba:	4d 58       	subi	r20, 0x8D	; 141
     cbc:	5f 4f       	sbci	r21, 0xFF	; 255
     cbe:	18 c0       	rjmp	.+48     	; 0xcf0 <Write_Character+0x3a4>
     cc0:	25 e0       	ldi	r18, 0x05	; 5
     cc2:	ae 01       	movw	r20, r28
     cc4:	43 5c       	subi	r20, 0xC3	; 195
     cc6:	5f 4f       	sbci	r21, 0xFF	; 255
     cc8:	13 c0       	rjmp	.+38     	; 0xcf0 <Write_Character+0x3a4>
     cca:	23 e0       	ldi	r18, 0x03	; 3
     ccc:	ae 01       	movw	r20, r28
     cce:	40 59       	subi	r20, 0x90	; 144
     cd0:	5f 4f       	sbci	r21, 0xFF	; 255
     cd2:	0e c0       	rjmp	.+28     	; 0xcf0 <Write_Character+0x3a4>
     cd4:	23 e0       	ldi	r18, 0x03	; 3
     cd6:	ae 01       	movw	r20, r28
     cd8:	43 59       	subi	r20, 0x93	; 147
     cda:	5f 4f       	sbci	r21, 0xFF	; 255
     cdc:	09 c0       	rjmp	.+18     	; 0xcf0 <Write_Character+0x3a4>
     cde:	23 e0       	ldi	r18, 0x03	; 3
     ce0:	ae 01       	movw	r20, r28
     ce2:	47 58       	subi	r20, 0x87	; 135
     ce4:	5f 4f       	sbci	r21, 0xFF	; 255
     ce6:	04 c0       	rjmp	.+8      	; 0xcf0 <Write_Character+0x3a4>
     ce8:	24 e0       	ldi	r18, 0x04	; 4
     cea:	ae 01       	movw	r20, r28
     cec:	4a 59       	subi	r20, 0x9A	; 154
     cee:	5f 4f       	sbci	r21, 0xFF	; 255
     cf0:	60 e4       	ldi	r22, 0x40	; 64
     cf2:	8c e3       	ldi	r24, 0x3C	; 60
     cf4:	0e 94 4e 03 	call	0x69c	; 0x69c <Write_TWI>
     cf8:	91 e0       	ldi	r25, 0x01	; 1
     cfa:	84 30       	cpi	r24, 0x04	; 4
     cfc:	09 f0       	breq	.+2      	; 0xd00 <Write_Character+0x3b4>
     cfe:	90 e0       	ldi	r25, 0x00	; 0
     d00:	89 2f       	mov	r24, r25
     d02:	c5 58       	subi	r28, 0x85	; 133
     d04:	df 4f       	sbci	r29, 0xFF	; 255
     d06:	cd bf       	out	0x3d, r28	; 61
     d08:	de bf       	out	0x3e, r29	; 62
     d0a:	df 91       	pop	r29
     d0c:	cf 91       	pop	r28
     d0e:	1f 91       	pop	r17
     d10:	0f 91       	pop	r16
     d12:	ef 90       	pop	r14
     d14:	df 90       	pop	r13
     d16:	cf 90       	pop	r12
     d18:	08 95       	ret

00000d1a <Clear_Display>:
     d1a:	cf 92       	push	r12
     d1c:	df 92       	push	r13
     d1e:	ef 92       	push	r14
     d20:	ff 92       	push	r15
     d22:	0f 93       	push	r16
     d24:	1f 93       	push	r17
     d26:	cf 93       	push	r28
     d28:	df 93       	push	r29
     d2a:	cd b7       	in	r28, 0x3d	; 61
     d2c:	de b7       	in	r29, 0x3e	; 62
     d2e:	64 97       	sbiw	r28, 0x14	; 20
     d30:	cd bf       	out	0x3d, r28	; 61
     d32:	de bf       	out	0x3e, r29	; 62
     d34:	11 e0       	ldi	r17, 0x01	; 1
     d36:	00 e0       	ldi	r16, 0x00	; 0
     d38:	94 e1       	ldi	r25, 0x14	; 20
     d3a:	c9 2e       	mov	r12, r25
     d3c:	ce 01       	movw	r24, r28
     d3e:	01 96       	adiw	r24, 0x01	; 1
     d40:	7c 01       	movw	r14, r24
     d42:	80 2f       	mov	r24, r16
     d44:	90 e0       	ldi	r25, 0x00	; 0
     d46:	88 30       	cpi	r24, 0x08	; 8
     d48:	91 05       	cpc	r25, r1
     d4a:	b8 f4       	brcc	.+46     	; 0xd7a <Clear_Display+0x60>
     d4c:	fc 01       	movw	r30, r24
     d4e:	e7 55       	subi	r30, 0x57	; 87
     d50:	ff 4f       	sbci	r31, 0xFF	; 255
     d52:	0c 94 83 23 	jmp	0x4706	; 0x4706 <__tablejump2__>
     d56:	80 eb       	ldi	r24, 0xB0	; 176
     d58:	0d c0       	rjmp	.+26     	; 0xd74 <Clear_Display+0x5a>
     d5a:	81 eb       	ldi	r24, 0xB1	; 177
     d5c:	0b c0       	rjmp	.+22     	; 0xd74 <Clear_Display+0x5a>
     d5e:	82 eb       	ldi	r24, 0xB2	; 178
     d60:	09 c0       	rjmp	.+18     	; 0xd74 <Clear_Display+0x5a>
     d62:	83 eb       	ldi	r24, 0xB3	; 179
     d64:	07 c0       	rjmp	.+14     	; 0xd74 <Clear_Display+0x5a>
     d66:	84 eb       	ldi	r24, 0xB4	; 180
     d68:	05 c0       	rjmp	.+10     	; 0xd74 <Clear_Display+0x5a>
     d6a:	85 eb       	ldi	r24, 0xB5	; 181
     d6c:	03 c0       	rjmp	.+6      	; 0xd74 <Clear_Display+0x5a>
     d6e:	86 eb       	ldi	r24, 0xB6	; 182
     d70:	01 c0       	rjmp	.+2      	; 0xd74 <Clear_Display+0x5a>
     d72:	87 eb       	ldi	r24, 0xB7	; 183
     d74:	0e 94 76 04 	call	0x8ec	; 0x8ec <Write_Display>
     d78:	18 23       	and	r17, r24
     d7a:	0f 5f       	subi	r16, 0xFF	; 255
     d7c:	09 30       	cpi	r16, 0x09	; 9
     d7e:	d1 f0       	breq	.+52     	; 0xdb4 <Clear_Display+0x9a>
     d80:	80 e0       	ldi	r24, 0x00	; 0
     d82:	0e 94 76 04 	call	0x8ec	; 0x8ec <Write_Display>
     d86:	d8 2e       	mov	r13, r24
     d88:	80 e1       	ldi	r24, 0x10	; 16
     d8a:	0e 94 76 04 	call	0x8ec	; 0x8ec <Write_Display>
     d8e:	8d 21       	and	r24, r13
     d90:	18 23       	and	r17, r24
     d92:	87 e0       	ldi	r24, 0x07	; 7
     d94:	d8 2e       	mov	r13, r24
     d96:	f7 01       	movw	r30, r14
     d98:	8c 2d       	mov	r24, r12
     d9a:	11 92       	st	Z+, r1
     d9c:	8a 95       	dec	r24
     d9e:	e9 f7       	brne	.-6      	; 0xd9a <Clear_Display+0x80>
     da0:	24 e1       	ldi	r18, 0x14	; 20
     da2:	a7 01       	movw	r20, r14
     da4:	60 e4       	ldi	r22, 0x40	; 64
     da6:	8c e3       	ldi	r24, 0x3C	; 60
     da8:	0e 94 4e 03 	call	0x69c	; 0x69c <Write_TWI>
     dac:	da 94       	dec	r13
     dae:	d1 10       	cpse	r13, r1
     db0:	f2 cf       	rjmp	.-28     	; 0xd96 <Clear_Display+0x7c>
     db2:	c7 cf       	rjmp	.-114    	; 0xd42 <Clear_Display+0x28>
     db4:	81 2f       	mov	r24, r17
     db6:	64 96       	adiw	r28, 0x14	; 20
     db8:	cd bf       	out	0x3d, r28	; 61
     dba:	de bf       	out	0x3e, r29	; 62
     dbc:	df 91       	pop	r29
     dbe:	cf 91       	pop	r28
     dc0:	1f 91       	pop	r17
     dc2:	0f 91       	pop	r16
     dc4:	ff 90       	pop	r15
     dc6:	ef 90       	pop	r14
     dc8:	df 90       	pop	r13
     dca:	cf 90       	pop	r12
     dcc:	08 95       	ret

00000dce <Setup_SSD>:
     dce:	cf 93       	push	r28
     dd0:	6f e3       	ldi	r22, 0x3F	; 63
     dd2:	88 ea       	ldi	r24, 0xA8	; 168
     dd4:	0e 94 8d 04 	call	0x91a	; 0x91a <Write_Display_Double>
     dd8:	c8 2f       	mov	r28, r24
     dda:	60 e0       	ldi	r22, 0x00	; 0
     ddc:	83 ed       	ldi	r24, 0xD3	; 211
     dde:	0e 94 8d 04 	call	0x91a	; 0x91a <Write_Display_Double>
     de2:	8c 23       	and	r24, r28
     de4:	c8 2f       	mov	r28, r24
     de6:	c1 70       	andi	r28, 0x01	; 1
     de8:	80 e4       	ldi	r24, 0x40	; 64
     dea:	0e 94 76 04 	call	0x8ec	; 0x8ec <Write_Display>
     dee:	c8 23       	and	r28, r24
     df0:	80 ea       	ldi	r24, 0xA0	; 160
     df2:	0e 94 76 04 	call	0x8ec	; 0x8ec <Write_Display>
     df6:	c8 23       	and	r28, r24
     df8:	80 ec       	ldi	r24, 0xC0	; 192
     dfa:	0e 94 76 04 	call	0x8ec	; 0x8ec <Write_Display>
     dfe:	c8 23       	and	r28, r24
     e00:	62 e0       	ldi	r22, 0x02	; 2
     e02:	8a ed       	ldi	r24, 0xDA	; 218
     e04:	0e 94 8d 04 	call	0x91a	; 0x91a <Write_Display_Double>
     e08:	c8 23       	and	r28, r24
     e0a:	6f e7       	ldi	r22, 0x7F	; 127
     e0c:	81 e8       	ldi	r24, 0x81	; 129
     e0e:	0e 94 8d 04 	call	0x91a	; 0x91a <Write_Display_Double>
     e12:	c8 23       	and	r28, r24
     e14:	84 ea       	ldi	r24, 0xA4	; 164
     e16:	0e 94 76 04 	call	0x8ec	; 0x8ec <Write_Display>
     e1a:	c8 23       	and	r28, r24
     e1c:	86 ea       	ldi	r24, 0xA6	; 166
     e1e:	0e 94 76 04 	call	0x8ec	; 0x8ec <Write_Display>
     e22:	c8 23       	and	r28, r24
     e24:	60 e8       	ldi	r22, 0x80	; 128
     e26:	85 ed       	ldi	r24, 0xD5	; 213
     e28:	0e 94 8d 04 	call	0x91a	; 0x91a <Write_Display_Double>
     e2c:	c8 23       	and	r28, r24
     e2e:	64 e1       	ldi	r22, 0x14	; 20
     e30:	8d e8       	ldi	r24, 0x8D	; 141
     e32:	0e 94 8d 04 	call	0x91a	; 0x91a <Write_Display_Double>
     e36:	c8 23       	and	r28, r24
     e38:	8f ea       	ldi	r24, 0xAF	; 175
     e3a:	0e 94 76 04 	call	0x8ec	; 0x8ec <Write_Display>
     e3e:	c8 23       	and	r28, r24
     e40:	0e 94 8d 06 	call	0xd1a	; 0xd1a <Clear_Display>
     e44:	8c 23       	and	r24, r28
     e46:	cf 91       	pop	r28
     e48:	08 95       	ret

00000e4a <Print_Page>:
     e4a:	ef 92       	push	r14
     e4c:	ff 92       	push	r15
     e4e:	0f 93       	push	r16
     e50:	1f 93       	push	r17
     e52:	cf 93       	push	r28
     e54:	df 93       	push	r29
     e56:	d8 2f       	mov	r29, r24
     e58:	8b 01       	movw	r16, r22
     e5a:	e4 2e       	mov	r14, r20
     e5c:	80 e0       	ldi	r24, 0x00	; 0
     e5e:	0e 94 76 04 	call	0x8ec	; 0x8ec <Write_Display>
     e62:	c8 2f       	mov	r28, r24
     e64:	80 e1       	ldi	r24, 0x10	; 16
     e66:	0e 94 76 04 	call	0x8ec	; 0x8ec <Write_Display>
     e6a:	8c 23       	and	r24, r28
     e6c:	c8 2f       	mov	r28, r24
     e6e:	c1 70       	andi	r28, 0x01	; 1
     e70:	8d 2f       	mov	r24, r29
     e72:	90 e0       	ldi	r25, 0x00	; 0
     e74:	fc 01       	movw	r30, r24
     e76:	31 97       	sbiw	r30, 0x01	; 1
     e78:	e7 30       	cpi	r30, 0x07	; 7
     e7a:	f1 05       	cpc	r31, r1
     e7c:	b0 f4       	brcc	.+44     	; 0xeaa <Print_Page+0x60>
     e7e:	ef 54       	subi	r30, 0x4F	; 79
     e80:	ff 4f       	sbci	r31, 0xFF	; 255
     e82:	0c 94 83 23 	jmp	0x4706	; 0x4706 <__tablejump2__>
     e86:	81 eb       	ldi	r24, 0xB1	; 177
     e88:	0e 94 76 04 	call	0x8ec	; 0x8ec <Write_Display>
     e8c:	c8 23       	and	r28, r24
     e8e:	d0 e0       	ldi	r29, 0x00	; 0
     e90:	0e c0       	rjmp	.+28     	; 0xeae <Print_Page+0x64>
     e92:	82 eb       	ldi	r24, 0xB2	; 178
     e94:	f9 cf       	rjmp	.-14     	; 0xe88 <Print_Page+0x3e>
     e96:	83 eb       	ldi	r24, 0xB3	; 179
     e98:	f7 cf       	rjmp	.-18     	; 0xe88 <Print_Page+0x3e>
     e9a:	84 eb       	ldi	r24, 0xB4	; 180
     e9c:	f5 cf       	rjmp	.-22     	; 0xe88 <Print_Page+0x3e>
     e9e:	85 eb       	ldi	r24, 0xB5	; 181
     ea0:	f3 cf       	rjmp	.-26     	; 0xe88 <Print_Page+0x3e>
     ea2:	86 eb       	ldi	r24, 0xB6	; 182
     ea4:	f1 cf       	rjmp	.-30     	; 0xe88 <Print_Page+0x3e>
     ea6:	87 eb       	ldi	r24, 0xB7	; 183
     ea8:	ef cf       	rjmp	.-34     	; 0xe88 <Print_Page+0x3e>
     eaa:	80 eb       	ldi	r24, 0xB0	; 176
     eac:	ed cf       	rjmp	.-38     	; 0xe88 <Print_Page+0x3e>
     eae:	f8 01       	movw	r30, r16
     eb0:	ed 0f       	add	r30, r29
     eb2:	f1 1d       	adc	r31, r1
     eb4:	80 81       	ld	r24, Z
     eb6:	0e 94 a6 04 	call	0x94c	; 0x94c <Write_Character>
     eba:	f8 2e       	mov	r15, r24
     ebc:	80 e2       	ldi	r24, 0x20	; 32
     ebe:	0e 94 a6 04 	call	0x94c	; 0x94c <Write_Character>
     ec2:	8f 21       	and	r24, r15
     ec4:	c8 23       	and	r28, r24
     ec6:	df 5f       	subi	r29, 0xFF	; 255
     ec8:	ed 16       	cp	r14, r29
     eca:	88 f7       	brcc	.-30     	; 0xeae <Print_Page+0x64>
     ecc:	8c 2f       	mov	r24, r28
     ece:	df 91       	pop	r29
     ed0:	cf 91       	pop	r28
     ed2:	1f 91       	pop	r17
     ed4:	0f 91       	pop	r16
     ed6:	ff 90       	pop	r15
     ed8:	ef 90       	pop	r14
     eda:	08 95       	ret

00000edc <Run_Motors>:
     edc:	cf 93       	push	r28
     ede:	df 93       	push	r29
     ee0:	cd b7       	in	r28, 0x3d	; 61
     ee2:	de b7       	in	r29, 0x3e	; 62
     ee4:	28 97       	sbiw	r28, 0x08	; 8
     ee6:	cd bf       	out	0x3d, r28	; 61
     ee8:	de bf       	out	0x3e, r29	; 62
     eea:	20 91 12 42 	lds	r18, 0x4212	; 0x804212 <__data_end>
     eee:	30 91 13 42 	lds	r19, 0x4213	; 0x804213 <__data_end+0x1>
     ef2:	23 2b       	or	r18, r19
     ef4:	89 f4       	brne	.+34     	; 0xf18 <Run_Motors+0x3c>
     ef6:	e2 e1       	ldi	r30, 0x12	; 18
     ef8:	f2 e4       	ldi	r31, 0x42	; 66
     efa:	28 eb       	ldi	r18, 0xB8	; 184
     efc:	3b e0       	ldi	r19, 0x0B	; 11
     efe:	21 93       	st	Z+, r18
     f00:	31 93       	st	Z+, r19
     f02:	2d 5f       	subi	r18, 0xFD	; 253
     f04:	3f 4f       	sbci	r19, 0xFF	; 255
     f06:	23 37       	cpi	r18, 0x73	; 115
     f08:	47 e1       	ldi	r20, 0x17	; 23
     f0a:	34 07       	cpc	r19, r20
     f0c:	c1 f7       	brne	.-16     	; 0xefe <Run_Motors+0x22>
     f0e:	20 91 60 04 	lds	r18, 0x0460	; 0x800460 <__TEXT_REGION_LENGTH__+0x7e0460>
     f12:	2f 60       	ori	r18, 0x0F	; 15
     f14:	20 93 60 04 	sts	0x0460, r18	; 0x800460 <__TEXT_REGION_LENGTH__+0x7e0460>
     f18:	fe 01       	movw	r30, r28
     f1a:	31 96       	adiw	r30, 0x01	; 1
     f1c:	48 e0       	ldi	r20, 0x08	; 8
     f1e:	df 01       	movw	r26, r30
     f20:	1d 92       	st	X+, r1
     f22:	4a 95       	dec	r20
     f24:	e9 f7       	brne	.-6      	; 0xf20 <Run_Motors+0x44>
     f26:	dc 01       	movw	r26, r24
     f28:	9f 01       	movw	r18, r30
     f2a:	ac 01       	movw	r20, r24
     f2c:	48 5f       	subi	r20, 0xF8	; 248
     f2e:	5f 4f       	sbci	r21, 0xFF	; 255
     f30:	8d 91       	ld	r24, X+
     f32:	9c 91       	ld	r25, X
     f34:	11 97       	sbiw	r26, 0x01	; 1
     f36:	89 3e       	cpi	r24, 0xE9	; 233
     f38:	e3 e0       	ldi	r30, 0x03	; 3
     f3a:	9e 07       	cpc	r25, r30
     f3c:	10 f0       	brcs	.+4      	; 0xf42 <Run_Motors+0x66>
     f3e:	88 ee       	ldi	r24, 0xE8	; 232
     f40:	93 e0       	ldi	r25, 0x03	; 3
     f42:	8d 93       	st	X+, r24
     f44:	9d 93       	st	X+, r25
     f46:	88 0f       	add	r24, r24
     f48:	99 1f       	adc	r25, r25
     f4a:	fc 01       	movw	r30, r24
     f4c:	ee 5e       	subi	r30, 0xEE	; 238
     f4e:	fd 4b       	sbci	r31, 0xBD	; 189
     f50:	80 81       	ld	r24, Z
     f52:	91 81       	ldd	r25, Z+1	; 0x01
     f54:	f9 01       	movw	r30, r18
     f56:	81 93       	st	Z+, r24
     f58:	91 93       	st	Z+, r25
     f5a:	9f 01       	movw	r18, r30
     f5c:	a4 17       	cp	r26, r20
     f5e:	b5 07       	cpc	r27, r21
     f60:	39 f7       	brne	.-50     	; 0xf30 <Run_Motors+0x54>
     f62:	80 91 00 0a 	lds	r24, 0x0A00	; 0x800a00 <__TEXT_REGION_LENGTH__+0x7e0a00>
     f66:	8e 7f       	andi	r24, 0xFE	; 254
     f68:	80 93 00 0a 	sts	0x0A00, r24	; 0x800a00 <__TEXT_REGION_LENGTH__+0x7e0a00>
     f6c:	89 81       	ldd	r24, Y+1	; 0x01
     f6e:	9a 81       	ldd	r25, Y+2	; 0x02
     f70:	80 93 28 0a 	sts	0x0A28, r24	; 0x800a28 <__TEXT_REGION_LENGTH__+0x7e0a28>
     f74:	90 93 29 0a 	sts	0x0A29, r25	; 0x800a29 <__TEXT_REGION_LENGTH__+0x7e0a29>
     f78:	8b 81       	ldd	r24, Y+3	; 0x03
     f7a:	9c 81       	ldd	r25, Y+4	; 0x04
     f7c:	80 93 2a 0a 	sts	0x0A2A, r24	; 0x800a2a <__TEXT_REGION_LENGTH__+0x7e0a2a>
     f80:	90 93 2b 0a 	sts	0x0A2B, r25	; 0x800a2b <__TEXT_REGION_LENGTH__+0x7e0a2b>
     f84:	8d 81       	ldd	r24, Y+5	; 0x05
     f86:	9e 81       	ldd	r25, Y+6	; 0x06
     f88:	80 93 2c 0a 	sts	0x0A2C, r24	; 0x800a2c <__TEXT_REGION_LENGTH__+0x7e0a2c>
     f8c:	90 93 2d 0a 	sts	0x0A2D, r25	; 0x800a2d <__TEXT_REGION_LENGTH__+0x7e0a2d>
     f90:	8f 81       	ldd	r24, Y+7	; 0x07
     f92:	98 85       	ldd	r25, Y+8	; 0x08
     f94:	80 93 68 0a 	sts	0x0A68, r24	; 0x800a68 <__TEXT_REGION_LENGTH__+0x7e0a68>
     f98:	90 93 69 0a 	sts	0x0A69, r25	; 0x800a69 <__TEXT_REGION_LENGTH__+0x7e0a69>
     f9c:	10 92 20 0a 	sts	0x0A20, r1	; 0x800a20 <__TEXT_REGION_LENGTH__+0x7e0a20>
     fa0:	10 92 21 0a 	sts	0x0A21, r1	; 0x800a21 <__TEXT_REGION_LENGTH__+0x7e0a21>
     fa4:	10 92 60 0a 	sts	0x0A60, r1	; 0x800a60 <__TEXT_REGION_LENGTH__+0x7e0a60>
     fa8:	10 92 61 0a 	sts	0x0A61, r1	; 0x800a61 <__TEXT_REGION_LENGTH__+0x7e0a61>
     fac:	80 91 64 04 	lds	r24, 0x0464	; 0x800464 <__TEXT_REGION_LENGTH__+0x7e0464>
     fb0:	8f 60       	ori	r24, 0x0F	; 15
     fb2:	80 93 64 04 	sts	0x0464, r24	; 0x800464 <__TEXT_REGION_LENGTH__+0x7e0464>
     fb6:	80 91 00 0a 	lds	r24, 0x0A00	; 0x800a00 <__TEXT_REGION_LENGTH__+0x7e0a00>
     fba:	81 60       	ori	r24, 0x01	; 1
     fbc:	80 93 00 0a 	sts	0x0A00, r24	; 0x800a00 <__TEXT_REGION_LENGTH__+0x7e0a00>
     fc0:	80 91 40 0a 	lds	r24, 0x0A40	; 0x800a40 <__TEXT_REGION_LENGTH__+0x7e0a40>
     fc4:	81 60       	ori	r24, 0x01	; 1
     fc6:	80 93 40 0a 	sts	0x0A40, r24	; 0x800a40 <__TEXT_REGION_LENGTH__+0x7e0a40>
     fca:	28 96       	adiw	r28, 0x08	; 8
     fcc:	cd bf       	out	0x3d, r28	; 61
     fce:	de bf       	out	0x3e, r29	; 62
     fd0:	df 91       	pop	r29
     fd2:	cf 91       	pop	r28
     fd4:	08 95       	ret

00000fd6 <__vector_11>:
     fd6:	1f 92       	push	r1
     fd8:	0f 92       	push	r0
     fda:	0f b6       	in	r0, 0x3f	; 63
     fdc:	0f 92       	push	r0
     fde:	11 24       	eor	r1, r1
     fe0:	0b b6       	in	r0, 0x3b	; 59
     fe2:	0f 92       	push	r0
     fe4:	8f 93       	push	r24
     fe6:	ef 93       	push	r30
     fe8:	ff 93       	push	r31
     fea:	e4 e6       	ldi	r30, 0x64	; 100
     fec:	f4 e0       	ldi	r31, 0x04	; 4
     fee:	80 81       	ld	r24, Z
     ff0:	8e 7f       	andi	r24, 0xFE	; 254
     ff2:	80 83       	st	Z, r24
     ff4:	80 e1       	ldi	r24, 0x10	; 16
     ff6:	80 93 0b 0a 	sts	0x0A0B, r24	; 0x800a0b <__TEXT_REGION_LENGTH__+0x7e0a0b>
     ffa:	ff 91       	pop	r31
     ffc:	ef 91       	pop	r30
     ffe:	8f 91       	pop	r24
    1000:	0f 90       	pop	r0
    1002:	0b be       	out	0x3b, r0	; 59
    1004:	0f 90       	pop	r0
    1006:	0f be       	out	0x3f, r0	; 63
    1008:	0f 90       	pop	r0
    100a:	1f 90       	pop	r1
    100c:	18 95       	reti

0000100e <__vector_12>:
    100e:	1f 92       	push	r1
    1010:	0f 92       	push	r0
    1012:	0f b6       	in	r0, 0x3f	; 63
    1014:	0f 92       	push	r0
    1016:	11 24       	eor	r1, r1
    1018:	0b b6       	in	r0, 0x3b	; 59
    101a:	0f 92       	push	r0
    101c:	8f 93       	push	r24
    101e:	ef 93       	push	r30
    1020:	ff 93       	push	r31
    1022:	e4 e6       	ldi	r30, 0x64	; 100
    1024:	f4 e0       	ldi	r31, 0x04	; 4
    1026:	80 81       	ld	r24, Z
    1028:	8d 7f       	andi	r24, 0xFD	; 253
    102a:	80 83       	st	Z, r24
    102c:	80 e2       	ldi	r24, 0x20	; 32
    102e:	80 93 0b 0a 	sts	0x0A0B, r24	; 0x800a0b <__TEXT_REGION_LENGTH__+0x7e0a0b>
    1032:	ff 91       	pop	r31
    1034:	ef 91       	pop	r30
    1036:	8f 91       	pop	r24
    1038:	0f 90       	pop	r0
    103a:	0b be       	out	0x3b, r0	; 59
    103c:	0f 90       	pop	r0
    103e:	0f be       	out	0x3f, r0	; 63
    1040:	0f 90       	pop	r0
    1042:	1f 90       	pop	r1
    1044:	18 95       	reti

00001046 <__vector_13>:
    1046:	1f 92       	push	r1
    1048:	0f 92       	push	r0
    104a:	0f b6       	in	r0, 0x3f	; 63
    104c:	0f 92       	push	r0
    104e:	11 24       	eor	r1, r1
    1050:	0b b6       	in	r0, 0x3b	; 59
    1052:	0f 92       	push	r0
    1054:	8f 93       	push	r24
    1056:	ef 93       	push	r30
    1058:	ff 93       	push	r31
    105a:	e4 e6       	ldi	r30, 0x64	; 100
    105c:	f4 e0       	ldi	r31, 0x04	; 4
    105e:	80 81       	ld	r24, Z
    1060:	8b 7f       	andi	r24, 0xFB	; 251
    1062:	80 83       	st	Z, r24
    1064:	80 e4       	ldi	r24, 0x40	; 64
    1066:	80 93 0b 0a 	sts	0x0A0B, r24	; 0x800a0b <__TEXT_REGION_LENGTH__+0x7e0a0b>
    106a:	ff 91       	pop	r31
    106c:	ef 91       	pop	r30
    106e:	8f 91       	pop	r24
    1070:	0f 90       	pop	r0
    1072:	0b be       	out	0x3b, r0	; 59
    1074:	0f 90       	pop	r0
    1076:	0f be       	out	0x3f, r0	; 63
    1078:	0f 90       	pop	r0
    107a:	1f 90       	pop	r1
    107c:	18 95       	reti

0000107e <__vector_49>:
    107e:	1f 92       	push	r1
    1080:	0f 92       	push	r0
    1082:	0f b6       	in	r0, 0x3f	; 63
    1084:	0f 92       	push	r0
    1086:	11 24       	eor	r1, r1
    1088:	0b b6       	in	r0, 0x3b	; 59
    108a:	0f 92       	push	r0
    108c:	8f 93       	push	r24
    108e:	ef 93       	push	r30
    1090:	ff 93       	push	r31
    1092:	e4 e6       	ldi	r30, 0x64	; 100
    1094:	f4 e0       	ldi	r31, 0x04	; 4
    1096:	80 81       	ld	r24, Z
    1098:	87 7f       	andi	r24, 0xF7	; 247
    109a:	80 83       	st	Z, r24
    109c:	80 e1       	ldi	r24, 0x10	; 16
    109e:	80 93 4b 0a 	sts	0x0A4B, r24	; 0x800a4b <__TEXT_REGION_LENGTH__+0x7e0a4b>
    10a2:	e0 e4       	ldi	r30, 0x40	; 64
    10a4:	fa e0       	ldi	r31, 0x0A	; 10
    10a6:	80 81       	ld	r24, Z
    10a8:	8e 7f       	andi	r24, 0xFE	; 254
    10aa:	80 83       	st	Z, r24
    10ac:	ff 91       	pop	r31
    10ae:	ef 91       	pop	r30
    10b0:	8f 91       	pop	r24
    10b2:	0f 90       	pop	r0
    10b4:	0b be       	out	0x3b, r0	; 59
    10b6:	0f 90       	pop	r0
    10b8:	0f be       	out	0x3f, r0	; 63
    10ba:	0f 90       	pop	r0
    10bc:	1f 90       	pop	r1
    10be:	18 95       	reti

000010c0 <Setup_Timers>:
    10c0:	e0 e4       	ldi	r30, 0x40	; 64
    10c2:	f1 e0       	ldi	r31, 0x01	; 1
    10c4:	80 81       	ld	r24, Z
    10c6:	85 60       	ori	r24, 0x05	; 5
    10c8:	80 83       	st	Z, r24
    10ca:	e2 e4       	ldi	r30, 0x42	; 66
    10cc:	f1 e0       	ldi	r31, 0x01	; 1
    10ce:	80 81       	ld	r24, Z
    10d0:	82 60       	ori	r24, 0x02	; 2
    10d2:	80 83       	st	Z, r24
    10d4:	80 e0       	ldi	r24, 0x00	; 0
    10d6:	90 e8       	ldi	r25, 0x80	; 128
    10d8:	80 93 4c 01 	sts	0x014C, r24	; 0x80014c <__TEXT_REGION_LENGTH__+0x7e014c>
    10dc:	90 93 4d 01 	sts	0x014D, r25	; 0x80014d <__TEXT_REGION_LENGTH__+0x7e014d>
    10e0:	e0 e0       	ldi	r30, 0x00	; 0
    10e2:	fa e0       	ldi	r31, 0x0A	; 10
    10e4:	80 81       	ld	r24, Z
    10e6:	86 60       	ori	r24, 0x06	; 6
    10e8:	80 83       	st	Z, r24
    10ea:	ea e0       	ldi	r30, 0x0A	; 10
    10ec:	fa e0       	ldi	r31, 0x0A	; 10
    10ee:	80 81       	ld	r24, Z
    10f0:	80 67       	ori	r24, 0x70	; 112
    10f2:	80 83       	st	Z, r24
    10f4:	ea e4       	ldi	r30, 0x4A	; 74
    10f6:	fa e0       	ldi	r31, 0x0A	; 10
    10f8:	80 81       	ld	r24, Z
    10fa:	80 61       	ori	r24, 0x10	; 16
    10fc:	80 83       	st	Z, r24
    10fe:	e0 e0       	ldi	r30, 0x00	; 0
    1100:	fb e0       	ldi	r31, 0x0B	; 11
    1102:	80 81       	ld	r24, Z
    1104:	83 60       	ori	r24, 0x03	; 3
    1106:	80 83       	st	Z, r24
    1108:	e5 e0       	ldi	r30, 0x05	; 5
    110a:	fb e0       	ldi	r31, 0x0B	; 11
    110c:	80 81       	ld	r24, Z
    110e:	81 60       	ori	r24, 0x01	; 1
    1110:	80 83       	st	Z, r24
    1112:	80 e6       	ldi	r24, 0x60	; 96
    1114:	9a ee       	ldi	r25, 0xEA	; 234
    1116:	80 93 0c 0b 	sts	0x0B0C, r24	; 0x800b0c <__TEXT_REGION_LENGTH__+0x7e0b0c>
    111a:	90 93 0d 0b 	sts	0x0B0D, r25	; 0x800b0d <__TEXT_REGION_LENGTH__+0x7e0b0d>
    111e:	e0 e1       	ldi	r30, 0x10	; 16
    1120:	fb e0       	ldi	r31, 0x0B	; 11
    1122:	80 81       	ld	r24, Z
    1124:	83 60       	ori	r24, 0x03	; 3
    1126:	80 83       	st	Z, r24
    1128:	e5 e1       	ldi	r30, 0x15	; 21
    112a:	fb e0       	ldi	r31, 0x0B	; 11
    112c:	80 81       	ld	r24, Z
    112e:	81 60       	ori	r24, 0x01	; 1
    1130:	80 83       	st	Z, r24
    1132:	8d e5       	ldi	r24, 0x5D	; 93
    1134:	91 ee       	ldi	r25, 0xE1	; 225
    1136:	80 93 1c 0b 	sts	0x0B1C, r24	; 0x800b1c <__TEXT_REGION_LENGTH__+0x7e0b1c>
    113a:	90 93 1d 0b 	sts	0x0B1D, r25	; 0x800b1d <__TEXT_REGION_LENGTH__+0x7e0b1d>
    113e:	08 95       	ret

00001140 <Run>:
    1140:	8f 92       	push	r8
    1142:	9f 92       	push	r9
    1144:	af 92       	push	r10
    1146:	bf 92       	push	r11
    1148:	cf 92       	push	r12
    114a:	df 92       	push	r13
    114c:	ef 92       	push	r14
    114e:	ff 92       	push	r15
    1150:	0f 93       	push	r16
    1152:	1f 93       	push	r17
    1154:	cf 93       	push	r28
    1156:	df 93       	push	r29
    1158:	cd b7       	in	r28, 0x3d	; 61
    115a:	de b7       	in	r29, 0x3e	; 62
    115c:	a3 97       	sbiw	r28, 0x23	; 35
    115e:	cd bf       	out	0x3d, r28	; 61
    1160:	de bf       	out	0x3e, r29	; 62
    1162:	18 2f       	mov	r17, r24
    1164:	80 91 fb 4b 	lds	r24, 0x4BFB	; 0x804bfb <g_GPS_Read_Flag>
    1168:	88 23       	and	r24, r24
    116a:	79 f0       	breq	.+30     	; 0x118a <Run+0x4a>
    116c:	10 92 fb 4b 	sts	0x4BFB, r1	; 0x804bfb <g_GPS_Read_Flag>
    1170:	89 e4       	ldi	r24, 0x49	; 73
    1172:	9a e4       	ldi	r25, 0x4A	; 74
    1174:	0e 94 77 11 	call	0x22ee	; 0x22ee <Read_GPS>
    1178:	90 91 48 4a 	lds	r25, 0x4A48	; 0x804a48 <Navigation_Bitmask.4868>
    117c:	81 11       	cpse	r24, r1
    117e:	02 c0       	rjmp	.+4      	; 0x1184 <Run+0x44>
    1180:	89 2f       	mov	r24, r25
    1182:	01 c0       	rjmp	.+2      	; 0x1186 <Run+0x46>
    1184:	89 2b       	or	r24, r25
    1186:	80 93 48 4a 	sts	0x4A48, r24	; 0x804a48 <Navigation_Bitmask.4868>
    118a:	80 91 ad 4a 	lds	r24, 0x4AAD	; 0x804aad <g_BAR_Read_Flag>
    118e:	83 30       	cpi	r24, 0x03	; 3
    1190:	80 f0       	brcs	.+32     	; 0x11b2 <Run+0x72>
    1192:	10 92 ad 4a 	sts	0x4AAD, r1	; 0x804aad <g_BAR_Read_Flag>
    1196:	89 e4       	ldi	r24, 0x49	; 73
    1198:	9a e4       	ldi	r25, 0x4A	; 74
    119a:	0e 94 3f 0b 	call	0x167e	; 0x167e <Read_Bar>
    119e:	90 91 48 4a 	lds	r25, 0x4A48	; 0x804a48 <Navigation_Bitmask.4868>
    11a2:	81 11       	cpse	r24, r1
    11a4:	02 c0       	rjmp	.+4      	; 0x11aa <Run+0x6a>
    11a6:	89 2f       	mov	r24, r25
    11a8:	02 c0       	rjmp	.+4      	; 0x11ae <Run+0x6e>
    11aa:	88 0f       	add	r24, r24
    11ac:	89 2b       	or	r24, r25
    11ae:	80 93 48 4a 	sts	0x4A48, r24	; 0x804a48 <Navigation_Bitmask.4868>
    11b2:	80 91 ae 4a 	lds	r24, 0x4AAE	; 0x804aae <g_MAG_Read_Flag>
    11b6:	82 30       	cpi	r24, 0x02	; 2
    11b8:	98 f0       	brcs	.+38     	; 0x11e0 <Run+0xa0>
    11ba:	10 92 ae 4a 	sts	0x4AAE, r1	; 0x804aae <g_MAG_Read_Flag>
    11be:	89 e4       	ldi	r24, 0x49	; 73
    11c0:	9a e4       	ldi	r25, 0x4A	; 74
    11c2:	0e 94 f2 0d 	call	0x1be4	; 0x1be4 <Read_Mag>
    11c6:	20 91 48 4a 	lds	r18, 0x4A48	; 0x804a48 <Navigation_Bitmask.4868>
    11ca:	81 11       	cpse	r24, r1
    11cc:	02 c0       	rjmp	.+4      	; 0x11d2 <Run+0x92>
    11ce:	82 2f       	mov	r24, r18
    11d0:	05 c0       	rjmp	.+10     	; 0x11dc <Run+0x9c>
    11d2:	38 e0       	ldi	r19, 0x08	; 8
    11d4:	83 9f       	mul	r24, r19
    11d6:	c0 01       	movw	r24, r0
    11d8:	11 24       	eor	r1, r1
    11da:	82 2b       	or	r24, r18
    11dc:	80 93 48 4a 	sts	0x4A48, r24	; 0x804a48 <Navigation_Bitmask.4868>
    11e0:	80 91 aa 4a 	lds	r24, 0x4AAA	; 0x804aaa <g_IMU_Read_Flag>
    11e4:	88 23       	and	r24, r24
    11e6:	99 f0       	breq	.+38     	; 0x120e <Run+0xce>
    11e8:	10 92 aa 4a 	sts	0x4AAA, r1	; 0x804aaa <g_IMU_Read_Flag>
    11ec:	89 e4       	ldi	r24, 0x49	; 73
    11ee:	9a e4       	ldi	r25, 0x4A	; 74
    11f0:	0e 94 f5 0b 	call	0x17ea	; 0x17ea <Read_IMU>
    11f4:	20 91 48 4a 	lds	r18, 0x4A48	; 0x804a48 <Navigation_Bitmask.4868>
    11f8:	81 11       	cpse	r24, r1
    11fa:	02 c0       	rjmp	.+4      	; 0x1200 <Run+0xc0>
    11fc:	82 2f       	mov	r24, r18
    11fe:	05 c0       	rjmp	.+10     	; 0x120a <Run+0xca>
    1200:	44 e0       	ldi	r20, 0x04	; 4
    1202:	84 9f       	mul	r24, r20
    1204:	c0 01       	movw	r24, r0
    1206:	11 24       	eor	r1, r1
    1208:	82 2b       	or	r24, r18
    120a:	80 93 48 4a 	sts	0x4A48, r24	; 0x804a48 <Navigation_Bitmask.4868>
    120e:	80 91 ac 4a 	lds	r24, 0x4AAC	; 0x804aac <g_Attitude_Observer_Run_Flag>
    1212:	88 30       	cpi	r24, 0x08	; 8
    1214:	30 f0       	brcs	.+12     	; 0x1222 <Run+0xe2>
    1216:	10 92 ac 4a 	sts	0x4AAC, r1	; 0x804aac <g_Attitude_Observer_Run_Flag>
    121a:	89 e4       	ldi	r24, 0x49	; 73
    121c:	9a e4       	ldi	r25, 0x4A	; 74
    121e:	0e 94 e8 17 	call	0x2fd0	; 0x2fd0 <Observer>
    1222:	80 91 a9 4a 	lds	r24, 0x4AA9	; 0x804aa9 <g_LoRa_Flag>
    1226:	84 31       	cpi	r24, 0x14	; 20
    1228:	28 f1       	brcs	.+74     	; 0x1274 <Run+0x134>
    122a:	10 92 a9 4a 	sts	0x4AA9, r1	; 0x804aa9 <g_LoRa_Flag>
    122e:	8c ee       	ldi	r24, 0xEC	; 236
    1230:	99 e4       	ldi	r25, 0x49	; 73
    1232:	0e 94 1c 04 	call	0x838	; 0x838 <Read_LoRa>
    1236:	80 93 ea 49 	sts	0x49EA, r24	; 0x8049ea <motor_throttles.4867+0x6>
    123a:	90 93 eb 49 	sts	0x49EB, r25	; 0x8049eb <motor_throttles.4867+0x7>
    123e:	2f e0       	ldi	r18, 0x0F	; 15
    1240:	fe 01       	movw	r30, r28
    1242:	31 96       	adiw	r30, 0x01	; 1
    1244:	7f 01       	movw	r14, r30
    1246:	32 2f       	mov	r19, r18
    1248:	11 92       	st	Z+, r1
    124a:	3a 95       	dec	r19
    124c:	e9 f7       	brne	.-6      	; 0x1248 <Run+0x108>
    124e:	9f 93       	push	r25
    1250:	8f 93       	push	r24
    1252:	86 e0       	ldi	r24, 0x06	; 6
    1254:	92 e4       	ldi	r25, 0x42	; 66
    1256:	9f 93       	push	r25
    1258:	8f 93       	push	r24
    125a:	1f 92       	push	r1
    125c:	2f 93       	push	r18
    125e:	ff 92       	push	r15
    1260:	ef 92       	push	r14
    1262:	0e 94 0c 28 	call	0x5018	; 0x5018 <snprintf>
    1266:	48 2f       	mov	r20, r24
    1268:	b7 01       	movw	r22, r14
    126a:	83 e0       	ldi	r24, 0x03	; 3
    126c:	0e 94 25 07 	call	0xe4a	; 0xe4a <Print_Page>
    1270:	cd bf       	out	0x3d, r28	; 61
    1272:	de bf       	out	0x3e, r29	; 62
    1274:	80 91 ab 4a 	lds	r24, 0x4AAB	; 0x804aab <g_Print_Flag>
    1278:	82 33       	cpi	r24, 0x32	; 50
    127a:	08 f4       	brcc	.+2      	; 0x127e <Run+0x13e>
    127c:	72 c0       	rjmp	.+228    	; 0x1362 <Run+0x222>
    127e:	15 ff       	sbrs	r17, 5
    1280:	70 c0       	rjmp	.+224    	; 0x1362 <Run+0x222>
    1282:	10 92 ab 4a 	sts	0x4AAB, r1	; 0x804aab <g_Print_Flag>
    1286:	8a e0       	ldi	r24, 0x0A	; 10
    1288:	d8 2e       	mov	r13, r24
    128a:	5e 01       	movw	r10, r28
    128c:	5a e1       	ldi	r21, 0x1A	; 26
    128e:	a5 0e       	add	r10, r21
    1290:	b1 1c       	adc	r11, r1
    1292:	f5 01       	movw	r30, r10
    1294:	3d 2d       	mov	r19, r13
    1296:	11 92       	st	Z+, r1
    1298:	3a 95       	dec	r19
    129a:	e9 f7       	brne	.-6      	; 0x1296 <Run+0x156>
    129c:	7e 01       	movw	r14, r28
    129e:	40 e1       	ldi	r20, 0x10	; 16
    12a0:	e4 0e       	add	r14, r20
    12a2:	f1 1c       	adc	r15, r1
    12a4:	f7 01       	movw	r30, r14
    12a6:	3d 2d       	mov	r19, r13
    12a8:	11 92       	st	Z+, r1
    12aa:	3a 95       	dec	r19
    12ac:	e9 f7       	brne	.-6      	; 0x12a8 <Run+0x168>
    12ae:	9f e0       	ldi	r25, 0x0F	; 15
    12b0:	c9 2e       	mov	r12, r25
    12b2:	ae 01       	movw	r20, r28
    12b4:	4f 5f       	subi	r20, 0xFF	; 255
    12b6:	5f 4f       	sbci	r21, 0xFF	; 255
    12b8:	4a 01       	movw	r8, r20
    12ba:	fa 01       	movw	r30, r20
    12bc:	3c 2d       	mov	r19, r12
    12be:	11 92       	st	Z+, r1
    12c0:	3a 95       	dec	r19
    12c2:	e9 f7       	brne	.-6      	; 0x12be <Run+0x17e>
    12c4:	80 91 70 4a 	lds	r24, 0x4A70	; 0x804a70 <Drone.4865+0x27>
    12c8:	8f 93       	push	r24
    12ca:	80 91 6f 4a 	lds	r24, 0x4A6F	; 0x804a6f <Drone.4865+0x26>
    12ce:	8f 93       	push	r24
    12d0:	80 91 6e 4a 	lds	r24, 0x4A6E	; 0x804a6e <Drone.4865+0x25>
    12d4:	8f 93       	push	r24
    12d6:	80 91 6d 4a 	lds	r24, 0x4A6D	; 0x804a6d <Drone.4865+0x24>
    12da:	8f 93       	push	r24
    12dc:	09 e0       	ldi	r16, 0x09	; 9
    12de:	12 e4       	ldi	r17, 0x42	; 66
    12e0:	1f 93       	push	r17
    12e2:	0f 93       	push	r16
    12e4:	1f 92       	push	r1
    12e6:	df 92       	push	r13
    12e8:	bf 92       	push	r11
    12ea:	af 92       	push	r10
    12ec:	0e 94 0c 28 	call	0x5018	; 0x5018 <snprintf>
    12f0:	48 2f       	mov	r20, r24
    12f2:	b5 01       	movw	r22, r10
    12f4:	80 e0       	ldi	r24, 0x00	; 0
    12f6:	0e 94 25 07 	call	0xe4a	; 0xe4a <Print_Page>
    12fa:	80 91 74 4a 	lds	r24, 0x4A74	; 0x804a74 <Drone.4865+0x2b>
    12fe:	8f 93       	push	r24
    1300:	80 91 73 4a 	lds	r24, 0x4A73	; 0x804a73 <Drone.4865+0x2a>
    1304:	8f 93       	push	r24
    1306:	80 91 72 4a 	lds	r24, 0x4A72	; 0x804a72 <Drone.4865+0x29>
    130a:	8f 93       	push	r24
    130c:	80 91 71 4a 	lds	r24, 0x4A71	; 0x804a71 <Drone.4865+0x28>
    1310:	8f 93       	push	r24
    1312:	1f 93       	push	r17
    1314:	0f 93       	push	r16
    1316:	1f 92       	push	r1
    1318:	df 92       	push	r13
    131a:	ff 92       	push	r15
    131c:	ef 92       	push	r14
    131e:	0e 94 0c 28 	call	0x5018	; 0x5018 <snprintf>
    1322:	48 2f       	mov	r20, r24
    1324:	b7 01       	movw	r22, r14
    1326:	81 e0       	ldi	r24, 0x01	; 1
    1328:	0e 94 25 07 	call	0xe4a	; 0xe4a <Print_Page>
    132c:	80 91 78 4a 	lds	r24, 0x4A78	; 0x804a78 <Drone.4865+0x2f>
    1330:	8f 93       	push	r24
    1332:	80 91 77 4a 	lds	r24, 0x4A77	; 0x804a77 <Drone.4865+0x2e>
    1336:	8f 93       	push	r24
    1338:	80 91 76 4a 	lds	r24, 0x4A76	; 0x804a76 <Drone.4865+0x2d>
    133c:	8f 93       	push	r24
    133e:	80 91 75 4a 	lds	r24, 0x4A75	; 0x804a75 <Drone.4865+0x2c>
    1342:	8f 93       	push	r24
    1344:	1f 93       	push	r17
    1346:	0f 93       	push	r16
    1348:	1f 92       	push	r1
    134a:	cf 92       	push	r12
    134c:	9f 92       	push	r9
    134e:	8f 92       	push	r8
    1350:	0e 94 0c 28 	call	0x5018	; 0x5018 <snprintf>
    1354:	48 2f       	mov	r20, r24
    1356:	b4 01       	movw	r22, r8
    1358:	82 e0       	ldi	r24, 0x02	; 2
    135a:	0e 94 25 07 	call	0xe4a	; 0xe4a <Print_Page>
    135e:	cd bf       	out	0x3d, r28	; 61
    1360:	de bf       	out	0x3e, r29	; 62
    1362:	80 91 af 4a 	lds	r24, 0x4AAF	; 0x804aaf <g_Motor_Run_Flag>
    1366:	82 30       	cpi	r24, 0x02	; 2
    1368:	30 f0       	brcs	.+12     	; 0x1376 <Run+0x236>
    136a:	10 92 af 4a 	sts	0x4AAF, r1	; 0x804aaf <g_Motor_Run_Flag>
    136e:	84 ee       	ldi	r24, 0xE4	; 228
    1370:	99 e4       	ldi	r25, 0x49	; 73
    1372:	0e 94 6e 07 	call	0xedc	; 0xedc <Run_Motors>
    1376:	a3 96       	adiw	r28, 0x23	; 35
    1378:	cd bf       	out	0x3d, r28	; 61
    137a:	de bf       	out	0x3e, r29	; 62
    137c:	df 91       	pop	r29
    137e:	cf 91       	pop	r28
    1380:	1f 91       	pop	r17
    1382:	0f 91       	pop	r16
    1384:	ff 90       	pop	r15
    1386:	ef 90       	pop	r14
    1388:	df 90       	pop	r13
    138a:	cf 90       	pop	r12
    138c:	bf 90       	pop	r11
    138e:	af 90       	pop	r10
    1390:	9f 90       	pop	r9
    1392:	8f 90       	pop	r8
    1394:	08 95       	ret

00001396 <Delay>:
    1396:	5f 92       	push	r5
    1398:	6f 92       	push	r6
    139a:	7f 92       	push	r7
    139c:	8f 92       	push	r8
    139e:	9f 92       	push	r9
    13a0:	af 92       	push	r10
    13a2:	bf 92       	push	r11
    13a4:	cf 92       	push	r12
    13a6:	df 92       	push	r13
    13a8:	ef 92       	push	r14
    13aa:	ff 92       	push	r15
    13ac:	0f 93       	push	r16
    13ae:	1f 93       	push	r17
    13b0:	cf 93       	push	r28
    13b2:	df 93       	push	r29
    13b4:	cd b7       	in	r28, 0x3d	; 61
    13b6:	de b7       	in	r29, 0x3e	; 62
    13b8:	28 97       	sbiw	r28, 0x08	; 8
    13ba:	cd bf       	out	0x3d, r28	; 61
    13bc:	de bf       	out	0x3e, r29	; 62
    13be:	52 2e       	mov	r5, r18
    13c0:	63 2e       	mov	r6, r19
    13c2:	74 2e       	mov	r7, r20
    13c4:	85 2e       	mov	r8, r21
    13c6:	96 2e       	mov	r9, r22
    13c8:	b7 2f       	mov	r27, r23
    13ca:	f8 2f       	mov	r31, r24
    13cc:	e9 2f       	mov	r30, r25
    13ce:	19 82       	std	Y+1, r1	; 0x01
    13d0:	1a 82       	std	Y+2, r1	; 0x02
    13d2:	1b 82       	std	Y+3, r1	; 0x03
    13d4:	1c 82       	std	Y+4, r1	; 0x04
    13d6:	1d 82       	std	Y+5, r1	; 0x05
    13d8:	1e 82       	std	Y+6, r1	; 0x06
    13da:	1f 82       	std	Y+7, r1	; 0x07
    13dc:	18 86       	std	Y+8, r1	; 0x08
    13de:	29 81       	ldd	r18, Y+1	; 0x01
    13e0:	3a 81       	ldd	r19, Y+2	; 0x02
    13e2:	4b 81       	ldd	r20, Y+3	; 0x03
    13e4:	5c 81       	ldd	r21, Y+4	; 0x04
    13e6:	6d 81       	ldd	r22, Y+5	; 0x05
    13e8:	7e 81       	ldd	r23, Y+6	; 0x06
    13ea:	8f 81       	ldd	r24, Y+7	; 0x07
    13ec:	98 85       	ldd	r25, Y+8	; 0x08
    13ee:	a1 e0       	ldi	r26, 0x01	; 1
    13f0:	0e 94 be 23 	call	0x477c	; 0x477c <__adddi3_s8>
    13f4:	29 83       	std	Y+1, r18	; 0x01
    13f6:	3a 83       	std	Y+2, r19	; 0x02
    13f8:	4b 83       	std	Y+3, r20	; 0x03
    13fa:	5c 83       	std	Y+4, r21	; 0x04
    13fc:	6d 83       	std	Y+5, r22	; 0x05
    13fe:	7e 83       	std	Y+6, r23	; 0x06
    1400:	8f 83       	std	Y+7, r24	; 0x07
    1402:	98 87       	std	Y+8, r25	; 0x08
    1404:	a5 2c       	mov	r10, r5
    1406:	b6 2c       	mov	r11, r6
    1408:	c7 2c       	mov	r12, r7
    140a:	d8 2c       	mov	r13, r8
    140c:	e9 2c       	mov	r14, r9
    140e:	fb 2e       	mov	r15, r27
    1410:	0f 2f       	mov	r16, r31
    1412:	1e 2f       	mov	r17, r30
    1414:	0e 94 ca 23 	call	0x4794	; 0x4794 <__cmpdi2>
    1418:	10 f3       	brcs	.-60     	; 0x13de <Delay+0x48>
    141a:	28 96       	adiw	r28, 0x08	; 8
    141c:	cd bf       	out	0x3d, r28	; 61
    141e:	de bf       	out	0x3e, r29	; 62
    1420:	df 91       	pop	r29
    1422:	cf 91       	pop	r28
    1424:	1f 91       	pop	r17
    1426:	0f 91       	pop	r16
    1428:	ff 90       	pop	r15
    142a:	ef 90       	pop	r14
    142c:	df 90       	pop	r13
    142e:	cf 90       	pop	r12
    1430:	bf 90       	pop	r11
    1432:	af 90       	pop	r10
    1434:	9f 90       	pop	r9
    1436:	8f 90       	pop	r8
    1438:	7f 90       	pop	r7
    143a:	6f 90       	pop	r6
    143c:	5f 90       	pop	r5
    143e:	08 95       	ret

00001440 <Setup>:
    1440:	ef 92       	push	r14
    1442:	ff 92       	push	r15
    1444:	0f 93       	push	r16
    1446:	1f 93       	push	r17
    1448:	cf 93       	push	r28
    144a:	df 93       	push	r29
    144c:	80 91 40 00 	lds	r24, 0x0040	; 0x800040 <__TEXT_REGION_LENGTH__+0x7e0040>
    1450:	80 ff       	sbrs	r24, 0
    1452:	0a c0       	rjmp	.+20     	; 0x1468 <Setup+0x28>
    1454:	20 ea       	ldi	r18, 0xA0	; 160
    1456:	36 e8       	ldi	r19, 0x86	; 134
    1458:	41 e0       	ldi	r20, 0x01	; 1
    145a:	50 e0       	ldi	r21, 0x00	; 0
    145c:	60 e0       	ldi	r22, 0x00	; 0
    145e:	70 e0       	ldi	r23, 0x00	; 0
    1460:	80 e0       	ldi	r24, 0x00	; 0
    1462:	90 e0       	ldi	r25, 0x00	; 0
    1464:	0e 94 cb 09 	call	0x1396	; 0x1396 <Delay>
    1468:	94 e2       	ldi	r25, 0x24	; 36
    146a:	88 ed       	ldi	r24, 0xD8	; 216
    146c:	84 bf       	out	0x34, r24	; 52
    146e:	90 93 68 00 	sts	0x0068, r25	; 0x800068 <__TEXT_REGION_LENGTH__+0x7e0068>
    1472:	80 91 65 00 	lds	r24, 0x0065	; 0x800065 <__TEXT_REGION_LENGTH__+0x7e0065>
    1476:	81 ff       	sbrs	r24, 1
    1478:	fc cf       	rjmp	.-8      	; 0x1472 <Setup+0x32>
    147a:	0e 94 f1 15 	call	0x2be2	; 0x2be2 <Setup_GPS>
    147e:	f8 2e       	mov	r15, r24
    1480:	0e 94 f0 01 	call	0x3e0	; 0x3e0 <Setup_SPI>
    1484:	0e 94 31 03 	call	0x662	; 0x662 <Setup_TWI>
    1488:	0e 94 d4 03 	call	0x7a8	; 0x7a8 <Setup_LoRa>
    148c:	c8 2f       	mov	r28, r24
    148e:	0e 94 bf 0d 	call	0x1b7e	; 0x1b7e <Setup_Mag>
    1492:	d8 2f       	mov	r29, r24
    1494:	0e 94 c2 0b 	call	0x1784	; 0x1784 <Setup_IMU>
    1498:	18 2f       	mov	r17, r24
    149a:	0e 94 eb 0a 	call	0x15d6	; 0x15d6 <Setup_Bar>
    149e:	e8 2e       	mov	r14, r24
    14a0:	0e 94 e7 06 	call	0xdce	; 0xdce <Setup_SSD>
    14a4:	08 2f       	mov	r16, r24
    14a6:	0e 94 60 08 	call	0x10c0	; 0x10c0 <Setup_Timers>
    14aa:	78 94       	sei
    14ac:	ee 0c       	add	r14, r14
    14ae:	34 e0       	ldi	r19, 0x04	; 4
    14b0:	13 9f       	mul	r17, r19
    14b2:	b0 01       	movw	r22, r0
    14b4:	11 24       	eor	r1, r1
    14b6:	6e 29       	or	r22, r14
    14b8:	6f 29       	or	r22, r15
    14ba:	88 e0       	ldi	r24, 0x08	; 8
    14bc:	d8 9f       	mul	r29, r24
    14be:	a0 01       	movw	r20, r0
    14c0:	11 24       	eor	r1, r1
    14c2:	46 2b       	or	r20, r22
    14c4:	80 e1       	ldi	r24, 0x10	; 16
    14c6:	c8 9f       	mul	r28, r24
    14c8:	90 01       	movw	r18, r0
    14ca:	11 24       	eor	r1, r1
    14cc:	24 2b       	or	r18, r20
    14ce:	30 e2       	ldi	r19, 0x20	; 32
    14d0:	03 9f       	mul	r16, r19
    14d2:	c0 01       	movw	r24, r0
    14d4:	11 24       	eor	r1, r1
    14d6:	82 2b       	or	r24, r18
    14d8:	df 91       	pop	r29
    14da:	cf 91       	pop	r28
    14dc:	1f 91       	pop	r17
    14de:	0f 91       	pop	r16
    14e0:	ff 90       	pop	r15
    14e2:	ef 90       	pop	r14
    14e4:	08 95       	ret

000014e6 <main>:
    14e6:	cf 93       	push	r28
    14e8:	0e 94 20 0a 	call	0x1440	; 0x1440 <Setup>
    14ec:	c8 2f       	mov	r28, r24
    14ee:	8f 71       	andi	r24, 0x1F	; 31
    14f0:	8f 31       	cpi	r24, 0x1F	; 31
    14f2:	21 f4       	brne	.+8      	; 0x14fc <main+0x16>
    14f4:	8c 2f       	mov	r24, r28
    14f6:	0e 94 a0 08 	call	0x1140	; 0x1140 <Run>
    14fa:	fc cf       	rjmp	.-8      	; 0x14f4 <main+0xe>
    14fc:	80 e0       	ldi	r24, 0x00	; 0
    14fe:	90 e0       	ldi	r25, 0x00	; 0
    1500:	cf 91       	pop	r28
    1502:	08 95       	ret

00001504 <__vector_5>:
    1504:	1f 92       	push	r1
    1506:	0f 92       	push	r0
    1508:	0f b6       	in	r0, 0x3f	; 63
    150a:	0f 92       	push	r0
    150c:	11 24       	eor	r1, r1
    150e:	8f 93       	push	r24
    1510:	9f 93       	push	r25
    1512:	af 93       	push	r26
    1514:	bf 93       	push	r27
    1516:	80 91 a5 4a 	lds	r24, 0x4AA5	; 0x804aa5 <g_seconds>
    151a:	90 91 a6 4a 	lds	r25, 0x4AA6	; 0x804aa6 <g_seconds+0x1>
    151e:	a0 91 a7 4a 	lds	r26, 0x4AA7	; 0x804aa7 <g_seconds+0x2>
    1522:	b0 91 a8 4a 	lds	r27, 0x4AA8	; 0x804aa8 <g_seconds+0x3>
    1526:	01 96       	adiw	r24, 0x01	; 1
    1528:	a1 1d       	adc	r26, r1
    152a:	b1 1d       	adc	r27, r1
    152c:	80 93 a5 4a 	sts	0x4AA5, r24	; 0x804aa5 <g_seconds>
    1530:	90 93 a6 4a 	sts	0x4AA6, r25	; 0x804aa6 <g_seconds+0x1>
    1534:	a0 93 a7 4a 	sts	0x4AA7, r26	; 0x804aa7 <g_seconds+0x2>
    1538:	b0 93 a8 4a 	sts	0x4AA8, r27	; 0x804aa8 <g_seconds+0x3>
    153c:	82 e0       	ldi	r24, 0x02	; 2
    153e:	80 93 43 01 	sts	0x0143, r24	; 0x800143 <__TEXT_REGION_LENGTH__+0x7e0143>
    1542:	bf 91       	pop	r27
    1544:	af 91       	pop	r26
    1546:	9f 91       	pop	r25
    1548:	8f 91       	pop	r24
    154a:	0f 90       	pop	r0
    154c:	0f be       	out	0x3f, r0	; 63
    154e:	0f 90       	pop	r0
    1550:	1f 90       	pop	r1
    1552:	18 95       	reti

00001554 <__vector_14>:
    1554:	1f 92       	push	r1
    1556:	0f 92       	push	r0
    1558:	0f b6       	in	r0, 0x3f	; 63
    155a:	0f 92       	push	r0
    155c:	11 24       	eor	r1, r1
    155e:	8f 93       	push	r24
    1560:	80 91 a9 4a 	lds	r24, 0x4AA9	; 0x804aa9 <g_LoRa_Flag>
    1564:	8f 5f       	subi	r24, 0xFF	; 255
    1566:	80 93 a9 4a 	sts	0x4AA9, r24	; 0x804aa9 <g_LoRa_Flag>
    156a:	80 91 af 4a 	lds	r24, 0x4AAF	; 0x804aaf <g_Motor_Run_Flag>
    156e:	8f 5f       	subi	r24, 0xFF	; 255
    1570:	80 93 af 4a 	sts	0x4AAF, r24	; 0x804aaf <g_Motor_Run_Flag>
    1574:	80 91 ab 4a 	lds	r24, 0x4AAB	; 0x804aab <g_Print_Flag>
    1578:	8f 5f       	subi	r24, 0xFF	; 255
    157a:	80 93 ab 4a 	sts	0x4AAB, r24	; 0x804aab <g_Print_Flag>
    157e:	80 91 ad 4a 	lds	r24, 0x4AAD	; 0x804aad <g_BAR_Read_Flag>
    1582:	8f 5f       	subi	r24, 0xFF	; 255
    1584:	80 93 ad 4a 	sts	0x4AAD, r24	; 0x804aad <g_BAR_Read_Flag>
    1588:	80 91 ac 4a 	lds	r24, 0x4AAC	; 0x804aac <g_Attitude_Observer_Run_Flag>
    158c:	8f 5f       	subi	r24, 0xFF	; 255
    158e:	80 93 ac 4a 	sts	0x4AAC, r24	; 0x804aac <g_Attitude_Observer_Run_Flag>
    1592:	80 91 ae 4a 	lds	r24, 0x4AAE	; 0x804aae <g_MAG_Read_Flag>
    1596:	8f 5f       	subi	r24, 0xFF	; 255
    1598:	80 93 ae 4a 	sts	0x4AAE, r24	; 0x804aae <g_MAG_Read_Flag>
    159c:	81 e0       	ldi	r24, 0x01	; 1
    159e:	80 93 06 0b 	sts	0x0B06, r24	; 0x800b06 <__TEXT_REGION_LENGTH__+0x7e0b06>
    15a2:	8f 91       	pop	r24
    15a4:	0f 90       	pop	r0
    15a6:	0f be       	out	0x3f, r0	; 63
    15a8:	0f 90       	pop	r0
    15aa:	1f 90       	pop	r1
    15ac:	18 95       	reti

000015ae <__vector_15>:
    15ae:	1f 92       	push	r1
    15b0:	0f 92       	push	r0
    15b2:	0f b6       	in	r0, 0x3f	; 63
    15b4:	0f 92       	push	r0
    15b6:	11 24       	eor	r1, r1
    15b8:	8f 93       	push	r24
    15ba:	80 91 aa 4a 	lds	r24, 0x4AAA	; 0x804aaa <g_IMU_Read_Flag>
    15be:	8f 5f       	subi	r24, 0xFF	; 255
    15c0:	80 93 aa 4a 	sts	0x4AAA, r24	; 0x804aaa <g_IMU_Read_Flag>
    15c4:	81 e0       	ldi	r24, 0x01	; 1
    15c6:	80 93 16 0b 	sts	0x0B16, r24	; 0x800b16 <__TEXT_REGION_LENGTH__+0x7e0b16>
    15ca:	8f 91       	pop	r24
    15cc:	0f 90       	pop	r0
    15ce:	0f be       	out	0x3f, r0	; 63
    15d0:	0f 90       	pop	r0
    15d2:	1f 90       	pop	r1
    15d4:	18 95       	reti

000015d6 <Setup_Bar>:
    15d6:	0f 93       	push	r16
    15d8:	1f 93       	push	r17
    15da:	cf 93       	push	r28
    15dc:	df 93       	push	r29
    15de:	1f 92       	push	r1
    15e0:	cd b7       	in	r28, 0x3d	; 61
    15e2:	de b7       	in	r29, 0x3e	; 62
    15e4:	19 82       	std	Y+1, r1	; 0x01
    15e6:	01 e0       	ldi	r16, 0x01	; 1
    15e8:	9e 01       	movw	r18, r28
    15ea:	2f 5f       	subi	r18, 0xFF	; 255
    15ec:	3f 4f       	sbci	r19, 0xFF	; 255
    15ee:	4f e8       	ldi	r20, 0x8F	; 143
    15f0:	67 e0       	ldi	r22, 0x07	; 7
    15f2:	81 e4       	ldi	r24, 0x41	; 65
    15f4:	0e 94 0f 02 	call	0x41e	; 0x41e <Read_SPI>
    15f8:	18 2f       	mov	r17, r24
    15fa:	27 e0       	ldi	r18, 0x07	; 7
    15fc:	4e e0       	ldi	r20, 0x0E	; 14
    15fe:	67 e0       	ldi	r22, 0x07	; 7
    1600:	81 e4       	ldi	r24, 0x41	; 65
    1602:	0e 94 af 02 	call	0x55e	; 0x55e <Write_SPI>
    1606:	81 23       	and	r24, r17
    1608:	18 2f       	mov	r17, r24
    160a:	12 70       	andi	r17, 0x02	; 2
    160c:	2c e5       	ldi	r18, 0x5C	; 92
    160e:	40 e1       	ldi	r20, 0x10	; 16
    1610:	67 e0       	ldi	r22, 0x07	; 7
    1612:	81 e4       	ldi	r24, 0x41	; 65
    1614:	0e 94 af 02 	call	0x55e	; 0x55e <Write_SPI>
    1618:	18 23       	and	r17, r24
    161a:	22 e1       	ldi	r18, 0x12	; 18
    161c:	41 e1       	ldi	r20, 0x11	; 17
    161e:	67 e0       	ldi	r22, 0x07	; 7
    1620:	81 e4       	ldi	r24, 0x41	; 65
    1622:	0e 94 af 02 	call	0x55e	; 0x55e <Write_SPI>
    1626:	18 23       	and	r17, r24
    1628:	81 e0       	ldi	r24, 0x01	; 1
    162a:	12 30       	cpi	r17, 0x02	; 2
    162c:	09 f0       	breq	.+2      	; 0x1630 <Setup_Bar+0x5a>
    162e:	80 e0       	ldi	r24, 0x00	; 0
    1630:	0f 90       	pop	r0
    1632:	df 91       	pop	r29
    1634:	cf 91       	pop	r28
    1636:	1f 91       	pop	r17
    1638:	0f 91       	pop	r16
    163a:	08 95       	ret

0000163c <Height_Bar>:
    163c:	0e 94 54 1c 	call	0x38a8	; 0x38a8 <__floatunsisf>
    1640:	2a e0       	ldi	r18, 0x0A	; 10
    1642:	37 ed       	ldi	r19, 0xD7	; 215
    1644:	43 e2       	ldi	r20, 0x23	; 35
    1646:	52 e4       	ldi	r21, 0x42	; 66
    1648:	0e 94 ac 1b 	call	0x3758	; 0x3758 <__divsf3>
    164c:	20 e8       	ldi	r18, 0x80	; 128
    164e:	36 ee       	ldi	r19, 0xE6	; 230
    1650:	45 ec       	ldi	r20, 0xC5	; 197
    1652:	57 e4       	ldi	r21, 0x47	; 71
    1654:	0e 94 ac 1b 	call	0x3758	; 0x3758 <__divsf3>
    1658:	2f e1       	ldi	r18, 0x1F	; 31
    165a:	35 ed       	ldi	r19, 0xD5	; 213
    165c:	42 e4       	ldi	r20, 0x42	; 66
    165e:	5e e3       	ldi	r21, 0x3E	; 62
    1660:	0e 94 e6 1d 	call	0x3bcc	; 0x3bcc <pow>
    1664:	20 e0       	ldi	r18, 0x00	; 0
    1666:	30 e0       	ldi	r19, 0x00	; 0
    1668:	40 e8       	ldi	r20, 0x80	; 128
    166a:	5f e3       	ldi	r21, 0x3F	; 63
    166c:	0e 94 c3 1a 	call	0x3586	; 0x3586 <__subsf3>
    1670:	24 ec       	ldi	r18, 0xC4	; 196
    1672:	3a e2       	ldi	r19, 0x2A	; 42
    1674:	4d e2       	ldi	r20, 0x2D	; 45
    1676:	57 ec       	ldi	r21, 0xC7	; 199
    1678:	0e 94 79 1d 	call	0x3af2	; 0x3af2 <__mulsf3>
    167c:	08 95       	ret

0000167e <Read_Bar>:
    167e:	ef 92       	push	r14
    1680:	ff 92       	push	r15
    1682:	0f 93       	push	r16
    1684:	cf 93       	push	r28
    1686:	df 93       	push	r29
    1688:	cd b7       	in	r28, 0x3d	; 61
    168a:	de b7       	in	r29, 0x3e	; 62
    168c:	27 97       	sbiw	r28, 0x07	; 7
    168e:	cd bf       	out	0x3d, r28	; 61
    1690:	de bf       	out	0x3e, r29	; 62
    1692:	7c 01       	movw	r14, r24
    1694:	1d 82       	std	Y+5, r1	; 0x05
    1696:	1e 82       	std	Y+6, r1	; 0x06
    1698:	1f 82       	std	Y+7, r1	; 0x07
    169a:	03 e0       	ldi	r16, 0x03	; 3
    169c:	9e 01       	movw	r18, r28
    169e:	2b 5f       	subi	r18, 0xFB	; 251
    16a0:	3f 4f       	sbci	r19, 0xFF	; 255
    16a2:	48 ea       	ldi	r20, 0xA8	; 168
    16a4:	67 e0       	ldi	r22, 0x07	; 7
    16a6:	81 e4       	ldi	r24, 0x41	; 65
    16a8:	0e 94 0f 02 	call	0x41e	; 0x41e <Read_SPI>
    16ac:	82 30       	cpi	r24, 0x02	; 2
    16ae:	09 f0       	breq	.+2      	; 0x16b2 <Read_Bar+0x34>
    16b0:	5d c0       	rjmp	.+186    	; 0x176c <Read_Bar+0xee>
    16b2:	8f 81       	ldd	r24, Y+7	; 0x07
    16b4:	90 e0       	ldi	r25, 0x00	; 0
    16b6:	a0 e0       	ldi	r26, 0x00	; 0
    16b8:	b0 e0       	ldi	r27, 0x00	; 0
    16ba:	dc 01       	movw	r26, r24
    16bc:	99 27       	eor	r25, r25
    16be:	88 27       	eor	r24, r24
    16c0:	2d 81       	ldd	r18, Y+5	; 0x05
    16c2:	82 0f       	add	r24, r18
    16c4:	91 1d       	adc	r25, r1
    16c6:	a1 1d       	adc	r26, r1
    16c8:	b1 1d       	adc	r27, r1
    16ca:	2e 81       	ldd	r18, Y+6	; 0x06
    16cc:	30 e0       	ldi	r19, 0x00	; 0
    16ce:	32 2f       	mov	r19, r18
    16d0:	22 27       	eor	r18, r18
    16d2:	82 0f       	add	r24, r18
    16d4:	93 1f       	adc	r25, r19
    16d6:	a1 1d       	adc	r26, r1
    16d8:	b1 1d       	adc	r27, r1
    16da:	e0 91 fa 4b 	lds	r30, 0x4BFA	; 0x804bfa <window_counter.4843>
    16de:	21 e0       	ldi	r18, 0x01	; 1
    16e0:	2e 0f       	add	r18, r30
    16e2:	20 93 fa 4b 	sts	0x4BFA, r18	; 0x804bfa <window_counter.4843>
    16e6:	34 e0       	ldi	r19, 0x04	; 4
    16e8:	e3 9f       	mul	r30, r19
    16ea:	f0 01       	movw	r30, r0
    16ec:	11 24       	eor	r1, r1
    16ee:	e6 54       	subi	r30, 0x46	; 70
    16f0:	f4 4b       	sbci	r31, 0xB4	; 180
    16f2:	80 83       	st	Z, r24
    16f4:	91 83       	std	Z+1, r25	; 0x01
    16f6:	a2 83       	std	Z+2, r26	; 0x02
    16f8:	b3 83       	std	Z+3, r27	; 0x03
    16fa:	20 31       	cpi	r18, 0x10	; 16
    16fc:	c8 f1       	brcs	.+114    	; 0x1770 <Read_Bar+0xf2>
    16fe:	19 82       	std	Y+1, r1	; 0x01
    1700:	1a 82       	std	Y+2, r1	; 0x02
    1702:	1b 82       	std	Y+3, r1	; 0x03
    1704:	1c 82       	std	Y+4, r1	; 0x04
    1706:	ea eb       	ldi	r30, 0xBA	; 186
    1708:	fb e4       	ldi	r31, 0x4B	; 75
    170a:	41 91       	ld	r20, Z+
    170c:	51 91       	ld	r21, Z+
    170e:	61 91       	ld	r22, Z+
    1710:	71 91       	ld	r23, Z+
    1712:	89 81       	ldd	r24, Y+1	; 0x01
    1714:	9a 81       	ldd	r25, Y+2	; 0x02
    1716:	ab 81       	ldd	r26, Y+3	; 0x03
    1718:	bc 81       	ldd	r27, Y+4	; 0x04
    171a:	84 0f       	add	r24, r20
    171c:	95 1f       	adc	r25, r21
    171e:	a6 1f       	adc	r26, r22
    1720:	b7 1f       	adc	r27, r23
    1722:	89 83       	std	Y+1, r24	; 0x01
    1724:	9a 83       	std	Y+2, r25	; 0x02
    1726:	ab 83       	std	Y+3, r26	; 0x03
    1728:	bc 83       	std	Y+4, r27	; 0x04
    172a:	8b e4       	ldi	r24, 0x4B	; 75
    172c:	ea 3f       	cpi	r30, 0xFA	; 250
    172e:	f8 07       	cpc	r31, r24
    1730:	61 f7       	brne	.-40     	; 0x170a <Read_Bar+0x8c>
    1732:	89 81       	ldd	r24, Y+1	; 0x01
    1734:	9a 81       	ldd	r25, Y+2	; 0x02
    1736:	ab 81       	ldd	r26, Y+3	; 0x03
    1738:	bc 81       	ldd	r27, Y+4	; 0x04
    173a:	24 e0       	ldi	r18, 0x04	; 4
    173c:	b6 95       	lsr	r27
    173e:	a7 95       	ror	r26
    1740:	97 95       	ror	r25
    1742:	87 95       	ror	r24
    1744:	2a 95       	dec	r18
    1746:	d1 f7       	brne	.-12     	; 0x173c <Read_Bar+0xbe>
    1748:	89 83       	std	Y+1, r24	; 0x01
    174a:	9a 83       	std	Y+2, r25	; 0x02
    174c:	ab 83       	std	Y+3, r26	; 0x03
    174e:	bc 83       	std	Y+4, r27	; 0x04
    1750:	69 81       	ldd	r22, Y+1	; 0x01
    1752:	7a 81       	ldd	r23, Y+2	; 0x02
    1754:	8b 81       	ldd	r24, Y+3	; 0x03
    1756:	9c 81       	ldd	r25, Y+4	; 0x04
    1758:	0e 94 1e 0b 	call	0x163c	; 0x163c <Height_Bar>
    175c:	f7 01       	movw	r30, r14
    175e:	60 ab       	std	Z+48, r22	; 0x30
    1760:	71 ab       	std	Z+49, r23	; 0x31
    1762:	82 ab       	std	Z+50, r24	; 0x32
    1764:	93 ab       	std	Z+51, r25	; 0x33
    1766:	10 92 fa 4b 	sts	0x4BFA, r1	; 0x804bfa <window_counter.4843>
    176a:	02 c0       	rjmp	.+4      	; 0x1770 <Read_Bar+0xf2>
    176c:	80 e0       	ldi	r24, 0x00	; 0
    176e:	01 c0       	rjmp	.+2      	; 0x1772 <Read_Bar+0xf4>
    1770:	81 e0       	ldi	r24, 0x01	; 1
    1772:	27 96       	adiw	r28, 0x07	; 7
    1774:	cd bf       	out	0x3d, r28	; 61
    1776:	de bf       	out	0x3e, r29	; 62
    1778:	df 91       	pop	r29
    177a:	cf 91       	pop	r28
    177c:	0f 91       	pop	r16
    177e:	ff 90       	pop	r15
    1780:	ef 90       	pop	r14
    1782:	08 95       	ret

00001784 <Setup_IMU>:
    1784:	0f 93       	push	r16
    1786:	1f 93       	push	r17
    1788:	cf 93       	push	r28
    178a:	df 93       	push	r29
    178c:	1f 92       	push	r1
    178e:	cd b7       	in	r28, 0x3d	; 61
    1790:	de b7       	in	r29, 0x3e	; 62
    1792:	19 82       	std	Y+1, r1	; 0x01
    1794:	01 e0       	ldi	r16, 0x01	; 1
    1796:	9e 01       	movw	r18, r28
    1798:	2f 5f       	subi	r18, 0xFF	; 255
    179a:	3f 4f       	sbci	r19, 0xFF	; 255
    179c:	4f e8       	ldi	r20, 0x8F	; 143
    179e:	66 e0       	ldi	r22, 0x06	; 6
    17a0:	81 e4       	ldi	r24, 0x41	; 65
    17a2:	0e 94 0f 02 	call	0x41e	; 0x41e <Read_SPI>
    17a6:	18 2f       	mov	r17, r24
    17a8:	20 e5       	ldi	r18, 0x50	; 80
    17aa:	40 e1       	ldi	r20, 0x10	; 16
    17ac:	66 e0       	ldi	r22, 0x06	; 6
    17ae:	81 e4       	ldi	r24, 0x41	; 65
    17b0:	0e 94 af 02 	call	0x55e	; 0x55e <Write_SPI>
    17b4:	81 23       	and	r24, r17
    17b6:	18 2f       	mov	r17, r24
    17b8:	12 70       	andi	r17, 0x02	; 2
    17ba:	24 e5       	ldi	r18, 0x54	; 84
    17bc:	41 e1       	ldi	r20, 0x11	; 17
    17be:	66 e0       	ldi	r22, 0x06	; 6
    17c0:	81 e4       	ldi	r24, 0x41	; 65
    17c2:	0e 94 af 02 	call	0x55e	; 0x55e <Write_SPI>
    17c6:	18 23       	and	r17, r24
    17c8:	28 ec       	ldi	r18, 0xC8	; 200
    17ca:	47 e1       	ldi	r20, 0x17	; 23
    17cc:	66 e0       	ldi	r22, 0x06	; 6
    17ce:	81 e4       	ldi	r24, 0x41	; 65
    17d0:	0e 94 af 02 	call	0x55e	; 0x55e <Write_SPI>
    17d4:	18 23       	and	r17, r24
    17d6:	81 e0       	ldi	r24, 0x01	; 1
    17d8:	12 30       	cpi	r17, 0x02	; 2
    17da:	09 f0       	breq	.+2      	; 0x17de <Setup_IMU+0x5a>
    17dc:	80 e0       	ldi	r24, 0x00	; 0
    17de:	0f 90       	pop	r0
    17e0:	df 91       	pop	r29
    17e2:	cf 91       	pop	r28
    17e4:	1f 91       	pop	r17
    17e6:	0f 91       	pop	r16
    17e8:	08 95       	ret

000017ea <Read_IMU>:
    17ea:	2f 92       	push	r2
    17ec:	3f 92       	push	r3
    17ee:	4f 92       	push	r4
    17f0:	5f 92       	push	r5
    17f2:	6f 92       	push	r6
    17f4:	7f 92       	push	r7
    17f6:	8f 92       	push	r8
    17f8:	9f 92       	push	r9
    17fa:	af 92       	push	r10
    17fc:	bf 92       	push	r11
    17fe:	cf 92       	push	r12
    1800:	df 92       	push	r13
    1802:	ef 92       	push	r14
    1804:	ff 92       	push	r15
    1806:	0f 93       	push	r16
    1808:	1f 93       	push	r17
    180a:	cf 93       	push	r28
    180c:	df 93       	push	r29
    180e:	cd b7       	in	r28, 0x3d	; 61
    1810:	de b7       	in	r29, 0x3e	; 62
    1812:	aa 97       	sbiw	r28, 0x2a	; 42
    1814:	cd bf       	out	0x3d, r28	; 61
    1816:	de bf       	out	0x3e, r29	; 62
    1818:	7c 01       	movw	r14, r24
    181a:	6e 01       	movw	r12, r28
    181c:	29 e1       	ldi	r18, 0x19	; 25
    181e:	c2 0e       	add	r12, r18
    1820:	d1 1c       	adc	r13, r1
    1822:	8c e0       	ldi	r24, 0x0C	; 12
    1824:	d6 01       	movw	r26, r12
    1826:	1d 92       	st	X+, r1
    1828:	8a 95       	dec	r24
    182a:	e9 f7       	brne	.-6      	; 0x1826 <Read_IMU+0x3c>
    182c:	0c e0       	ldi	r16, 0x0C	; 12
    182e:	96 01       	movw	r18, r12
    1830:	42 ea       	ldi	r20, 0xA2	; 162
    1832:	66 e0       	ldi	r22, 0x06	; 6
    1834:	81 e4       	ldi	r24, 0x41	; 65
    1836:	0e 94 0f 02 	call	0x41e	; 0x41e <Read_SPI>
    183a:	82 30       	cpi	r24, 0x02	; 2
    183c:	09 f0       	breq	.+2      	; 0x1840 <Read_IMU+0x56>
    183e:	88 c1       	rjmp	.+784    	; 0x1b50 <Read_IMU+0x366>
    1840:	10 91 b9 4b 	lds	r17, 0x4BB9	; 0x804bb9 <window_counter.4869>
    1844:	f6 01       	movw	r30, r12
    1846:	41 2f       	mov	r20, r17
    1848:	50 e0       	ldi	r21, 0x00	; 0
    184a:	44 0f       	add	r20, r20
    184c:	55 1f       	adc	r21, r21
    184e:	20 e0       	ldi	r18, 0x00	; 0
    1850:	30 e0       	ldi	r19, 0x00	; 0
    1852:	ba 01       	movw	r22, r20
    1854:	62 0f       	add	r22, r18
    1856:	73 1f       	adc	r23, r19
    1858:	db 01       	movw	r26, r22
    185a:	a7 57       	subi	r26, 0x77	; 119
    185c:	b4 4b       	sbci	r27, 0xB4	; 180
    185e:	87 81       	ldd	r24, Z+7	; 0x07
    1860:	90 e0       	ldi	r25, 0x00	; 0
    1862:	98 2f       	mov	r25, r24
    1864:	88 27       	eor	r24, r24
    1866:	06 81       	ldd	r16, Z+6	; 0x06
    1868:	80 0f       	add	r24, r16
    186a:	91 1d       	adc	r25, r1
    186c:	8d 93       	st	X+, r24
    186e:	9c 93       	st	X, r25
    1870:	67 5a       	subi	r22, 0xA7	; 167
    1872:	74 4b       	sbci	r23, 0xB4	; 180
    1874:	81 81       	ldd	r24, Z+1	; 0x01
    1876:	90 e0       	ldi	r25, 0x00	; 0
    1878:	98 2f       	mov	r25, r24
    187a:	88 27       	eor	r24, r24
    187c:	a0 81       	ld	r26, Z
    187e:	8a 0f       	add	r24, r26
    1880:	91 1d       	adc	r25, r1
    1882:	db 01       	movw	r26, r22
    1884:	8d 93       	st	X+, r24
    1886:	9c 93       	st	X, r25
    1888:	32 96       	adiw	r30, 0x02	; 2
    188a:	20 5f       	subi	r18, 0xF0	; 240
    188c:	3f 4f       	sbci	r19, 0xFF	; 255
    188e:	20 33       	cpi	r18, 0x30	; 48
    1890:	31 05       	cpc	r19, r1
    1892:	f9 f6       	brne	.-66     	; 0x1852 <Read_IMU+0x68>
    1894:	81 e0       	ldi	r24, 0x01	; 1
    1896:	81 0f       	add	r24, r17
    1898:	88 30       	cpi	r24, 0x08	; 8
    189a:	18 f4       	brcc	.+6      	; 0x18a2 <Read_IMU+0xb8>
    189c:	80 93 b9 4b 	sts	0x4BB9, r24	; 0x804bb9 <window_counter.4869>
    18a0:	55 c1       	rjmp	.+682    	; 0x1b4c <Read_IMU+0x362>
    18a2:	10 92 b9 4b 	sts	0x4BB9, r1	; 0x804bb9 <window_counter.4869>
    18a6:	8c e0       	ldi	r24, 0x0C	; 12
    18a8:	fe 01       	movw	r30, r28
    18aa:	3d 96       	adiw	r30, 0x0d	; 13
    18ac:	df 01       	movw	r26, r30
    18ae:	28 2f       	mov	r18, r24
    18b0:	1d 92       	st	X+, r1
    18b2:	2a 95       	dec	r18
    18b4:	e9 f7       	brne	.-6      	; 0x18b0 <Read_IMU+0xc6>
    18b6:	8e 01       	movw	r16, r28
    18b8:	0f 5f       	subi	r16, 0xFF	; 255
    18ba:	1f 4f       	sbci	r17, 0xFF	; 255
    18bc:	d8 01       	movw	r26, r16
    18be:	1d 92       	st	X+, r1
    18c0:	8a 95       	dec	r24
    18c2:	e9 f7       	brne	.-6      	; 0x18be <Read_IMU+0xd4>
    18c4:	49 e8       	ldi	r20, 0x89	; 137
    18c6:	5b e4       	ldi	r21, 0x4B	; 75
    18c8:	69 e5       	ldi	r22, 0x59	; 89
    18ca:	7b e4       	ldi	r23, 0x4B	; 75
    18cc:	20 e0       	ldi	r18, 0x00	; 0
    18ce:	30 e0       	ldi	r19, 0x00	; 0
    18d0:	80 e0       	ldi	r24, 0x00	; 0
    18d2:	90 e0       	ldi	r25, 0x00	; 0
    18d4:	f9 01       	movw	r30, r18
    18d6:	ee 0f       	add	r30, r30
    18d8:	ff 1f       	adc	r31, r31
    18da:	ee 0f       	add	r30, r30
    18dc:	ff 1f       	adc	r31, r31
    18de:	e0 0f       	add	r30, r16
    18e0:	f1 1f       	adc	r31, r17
    18e2:	1f 01       	movw	r2, r30
    18e4:	bc e0       	ldi	r27, 0x0C	; 12
    18e6:	2b 0e       	add	r2, r27
    18e8:	31 1c       	adc	r3, r1
    18ea:	d1 01       	movw	r26, r2
    18ec:	4d 90       	ld	r4, X+
    18ee:	5d 90       	ld	r5, X+
    18f0:	6d 90       	ld	r6, X+
    18f2:	7c 90       	ld	r7, X
    18f4:	6a 01       	movw	r12, r20
    18f6:	c8 0e       	add	r12, r24
    18f8:	d9 1e       	adc	r13, r25
    18fa:	d6 01       	movw	r26, r12
    18fc:	cd 90       	ld	r12, X+
    18fe:	dc 90       	ld	r13, X
    1900:	46 01       	movw	r8, r12
    1902:	dd 0c       	add	r13, r13
    1904:	aa 08       	sbc	r10, r10
    1906:	bb 08       	sbc	r11, r11
    1908:	84 0c       	add	r8, r4
    190a:	95 1c       	adc	r9, r5
    190c:	a6 1c       	adc	r10, r6
    190e:	b7 1c       	adc	r11, r7
    1910:	d1 01       	movw	r26, r2
    1912:	8d 92       	st	X+, r8
    1914:	9d 92       	st	X+, r9
    1916:	ad 92       	st	X+, r10
    1918:	bc 92       	st	X, r11
    191a:	13 97       	sbiw	r26, 0x03	; 3
    191c:	40 80       	ld	r4, Z
    191e:	51 80       	ldd	r5, Z+1	; 0x01
    1920:	62 80       	ldd	r6, Z+2	; 0x02
    1922:	73 80       	ldd	r7, Z+3	; 0x03
    1924:	6b 01       	movw	r12, r22
    1926:	c8 0e       	add	r12, r24
    1928:	d9 1e       	adc	r13, r25
    192a:	d6 01       	movw	r26, r12
    192c:	cd 90       	ld	r12, X+
    192e:	dc 90       	ld	r13, X
    1930:	46 01       	movw	r8, r12
    1932:	dd 0c       	add	r13, r13
    1934:	aa 08       	sbc	r10, r10
    1936:	bb 08       	sbc	r11, r11
    1938:	84 0c       	add	r8, r4
    193a:	95 1c       	adc	r9, r5
    193c:	a6 1c       	adc	r10, r6
    193e:	b7 1c       	adc	r11, r7
    1940:	80 82       	st	Z, r8
    1942:	91 82       	std	Z+1, r9	; 0x01
    1944:	a2 82       	std	Z+2, r10	; 0x02
    1946:	b3 82       	std	Z+3, r11	; 0x03
    1948:	02 96       	adiw	r24, 0x02	; 2
    194a:	80 31       	cpi	r24, 0x10	; 16
    194c:	91 05       	cpc	r25, r1
    194e:	69 f6       	brne	.-102    	; 0x18ea <Read_IMU+0x100>
    1950:	84 85       	ldd	r24, Z+12	; 0x0c
    1952:	95 85       	ldd	r25, Z+13	; 0x0d
    1954:	a6 85       	ldd	r26, Z+14	; 0x0e
    1956:	b7 85       	ldd	r27, Z+15	; 0x0f
    1958:	68 94       	set
    195a:	12 f8       	bld	r1, 2
    195c:	b5 95       	asr	r27
    195e:	a7 95       	ror	r26
    1960:	97 95       	ror	r25
    1962:	87 95       	ror	r24
    1964:	16 94       	lsr	r1
    1966:	d1 f7       	brne	.-12     	; 0x195c <Read_IMU+0x172>
    1968:	84 87       	std	Z+12, r24	; 0x0c
    196a:	95 87       	std	Z+13, r25	; 0x0d
    196c:	a6 87       	std	Z+14, r26	; 0x0e
    196e:	b7 87       	std	Z+15, r27	; 0x0f
    1970:	80 81       	ld	r24, Z
    1972:	91 81       	ldd	r25, Z+1	; 0x01
    1974:	a2 81       	ldd	r26, Z+2	; 0x02
    1976:	b3 81       	ldd	r27, Z+3	; 0x03
    1978:	68 94       	set
    197a:	12 f8       	bld	r1, 2
    197c:	b5 95       	asr	r27
    197e:	a7 95       	ror	r26
    1980:	97 95       	ror	r25
    1982:	87 95       	ror	r24
    1984:	16 94       	lsr	r1
    1986:	d1 f7       	brne	.-12     	; 0x197c <Read_IMU+0x192>
    1988:	80 83       	st	Z, r24
    198a:	91 83       	std	Z+1, r25	; 0x01
    198c:	a2 83       	std	Z+2, r26	; 0x02
    198e:	b3 83       	std	Z+3, r27	; 0x03
    1990:	2f 5f       	subi	r18, 0xFF	; 255
    1992:	3f 4f       	sbci	r19, 0xFF	; 255
    1994:	40 5f       	subi	r20, 0xF0	; 240
    1996:	5f 4f       	sbci	r21, 0xFF	; 255
    1998:	60 5f       	subi	r22, 0xF0	; 240
    199a:	7f 4f       	sbci	r23, 0xFF	; 255
    199c:	23 30       	cpi	r18, 0x03	; 3
    199e:	31 05       	cpc	r19, r1
    19a0:	09 f0       	breq	.+2      	; 0x19a4 <Read_IMU+0x1ba>
    19a2:	96 cf       	rjmp	.-212    	; 0x18d0 <Read_IMU+0xe6>
    19a4:	80 91 a5 4a 	lds	r24, 0x4AA5	; 0x804aa5 <g_seconds>
    19a8:	90 91 a6 4a 	lds	r25, 0x4AA6	; 0x804aa6 <g_seconds+0x1>
    19ac:	a0 91 a7 4a 	lds	r26, 0x4AA7	; 0x804aa7 <g_seconds+0x2>
    19b0:	b0 91 a8 4a 	lds	r27, 0x4AA8	; 0x804aa8 <g_seconds+0x3>
    19b4:	89 2b       	or	r24, r25
    19b6:	8a 2b       	or	r24, r26
    19b8:	8b 2b       	or	r24, r27
    19ba:	f1 f4       	brne	.+60     	; 0x19f8 <Read_IMU+0x20e>
    19bc:	89 81       	ldd	r24, Y+1	; 0x01
    19be:	9a 81       	ldd	r25, Y+2	; 0x02
    19c0:	ab 81       	ldd	r26, Y+3	; 0x03
    19c2:	bc 81       	ldd	r27, Y+4	; 0x04
    19c4:	91 95       	neg	r25
    19c6:	81 95       	neg	r24
    19c8:	91 09       	sbc	r25, r1
    19ca:	80 93 53 4b 	sts	0x4B53, r24	; 0x804b53 <w_bias.4868>
    19ce:	90 93 54 4b 	sts	0x4B54, r25	; 0x804b54 <w_bias.4868+0x1>
    19d2:	8d 81       	ldd	r24, Y+5	; 0x05
    19d4:	9e 81       	ldd	r25, Y+6	; 0x06
    19d6:	af 81       	ldd	r26, Y+7	; 0x07
    19d8:	b8 85       	ldd	r27, Y+8	; 0x08
    19da:	80 93 55 4b 	sts	0x4B55, r24	; 0x804b55 <w_bias.4868+0x2>
    19de:	90 93 56 4b 	sts	0x4B56, r25	; 0x804b56 <w_bias.4868+0x3>
    19e2:	89 85       	ldd	r24, Y+9	; 0x09
    19e4:	9a 85       	ldd	r25, Y+10	; 0x0a
    19e6:	ab 85       	ldd	r26, Y+11	; 0x0b
    19e8:	bc 85       	ldd	r27, Y+12	; 0x0c
    19ea:	91 95       	neg	r25
    19ec:	81 95       	neg	r24
    19ee:	91 09       	sbc	r25, r1
    19f0:	80 93 57 4b 	sts	0x4B57, r24	; 0x804b57 <w_bias.4868+0x4>
    19f4:	90 93 58 4b 	sts	0x4B58, r25	; 0x804b58 <w_bias.4868+0x5>
    19f8:	89 81       	ldd	r24, Y+1	; 0x01
    19fa:	9a 81       	ldd	r25, Y+2	; 0x02
    19fc:	ab 81       	ldd	r26, Y+3	; 0x03
    19fe:	bc 81       	ldd	r27, Y+4	; 0x04
    1a00:	20 91 53 4b 	lds	r18, 0x4B53	; 0x804b53 <w_bias.4868>
    1a04:	30 91 54 4b 	lds	r19, 0x4B54	; 0x804b54 <w_bias.4868+0x1>
    1a08:	82 0f       	add	r24, r18
    1a0a:	93 1f       	adc	r25, r19
    1a0c:	91 95       	neg	r25
    1a0e:	81 95       	neg	r24
    1a10:	91 09       	sbc	r25, r1
    1a12:	8d a3       	std	Y+37, r24	; 0x25
    1a14:	9e a3       	std	Y+38, r25	; 0x26
    1a16:	8d 81       	ldd	r24, Y+5	; 0x05
    1a18:	9e 81       	ldd	r25, Y+6	; 0x06
    1a1a:	af 81       	ldd	r26, Y+7	; 0x07
    1a1c:	b8 85       	ldd	r27, Y+8	; 0x08
    1a1e:	20 91 55 4b 	lds	r18, 0x4B55	; 0x804b55 <w_bias.4868+0x2>
    1a22:	30 91 56 4b 	lds	r19, 0x4B56	; 0x804b56 <w_bias.4868+0x3>
    1a26:	82 1b       	sub	r24, r18
    1a28:	93 0b       	sbc	r25, r19
    1a2a:	8f a3       	std	Y+39, r24	; 0x27
    1a2c:	98 a7       	std	Y+40, r25	; 0x28
    1a2e:	89 85       	ldd	r24, Y+9	; 0x09
    1a30:	9a 85       	ldd	r25, Y+10	; 0x0a
    1a32:	ab 85       	ldd	r26, Y+11	; 0x0b
    1a34:	bc 85       	ldd	r27, Y+12	; 0x0c
    1a36:	20 91 57 4b 	lds	r18, 0x4B57	; 0x804b57 <w_bias.4868+0x4>
    1a3a:	30 91 58 4b 	lds	r19, 0x4B58	; 0x804b58 <w_bias.4868+0x5>
    1a3e:	82 0f       	add	r24, r18
    1a40:	93 1f       	adc	r25, r19
    1a42:	91 95       	neg	r25
    1a44:	81 95       	neg	r24
    1a46:	91 09       	sbc	r25, r1
    1a48:	89 a7       	std	Y+41, r24	; 0x29
    1a4a:	9a a7       	std	Y+42, r25	; 0x2a
    1a4c:	6e 01       	movw	r12, r28
    1a4e:	e5 e2       	ldi	r30, 0x25	; 37
    1a50:	ce 0e       	add	r12, r30
    1a52:	d1 1c       	adc	r13, r1
    1a54:	87 01       	movw	r16, r14
    1a56:	57 01       	movw	r10, r14
    1a58:	fc e0       	ldi	r31, 0x0C	; 12
    1a5a:	af 0e       	add	r10, r31
    1a5c:	b1 1c       	adc	r11, r1
    1a5e:	d6 01       	movw	r26, r12
    1a60:	6d 91       	ld	r22, X+
    1a62:	7d 91       	ld	r23, X+
    1a64:	6d 01       	movw	r12, r26
    1a66:	07 2e       	mov	r0, r23
    1a68:	00 0c       	add	r0, r0
    1a6a:	88 0b       	sbc	r24, r24
    1a6c:	99 0b       	sbc	r25, r25
    1a6e:	0e 94 56 1c 	call	0x38ac	; 0x38ac <__floatsisf>
    1a72:	20 e0       	ldi	r18, 0x00	; 0
    1a74:	30 e0       	ldi	r19, 0x00	; 0
    1a76:	4a ef       	ldi	r20, 0xFA	; 250
    1a78:	53 e4       	ldi	r21, 0x43	; 67
    1a7a:	0e 94 79 1d 	call	0x3af2	; 0x3af2 <__mulsf3>
    1a7e:	20 e0       	ldi	r18, 0x00	; 0
    1a80:	30 e0       	ldi	r19, 0x00	; 0
    1a82:	40 e0       	ldi	r20, 0x00	; 0
    1a84:	58 e3       	ldi	r21, 0x38	; 56
    1a86:	0e 94 79 1d 	call	0x3af2	; 0x3af2 <__mulsf3>
    1a8a:	2b ed       	ldi	r18, 0xDB	; 219
    1a8c:	3f e0       	ldi	r19, 0x0F	; 15
    1a8e:	49 e4       	ldi	r20, 0x49	; 73
    1a90:	50 e4       	ldi	r21, 0x40	; 64
    1a92:	0e 94 79 1d 	call	0x3af2	; 0x3af2 <__mulsf3>
    1a96:	20 e0       	ldi	r18, 0x00	; 0
    1a98:	30 e0       	ldi	r19, 0x00	; 0
    1a9a:	44 e3       	ldi	r20, 0x34	; 52
    1a9c:	53 e4       	ldi	r21, 0x43	; 67
    1a9e:	0e 94 ac 1b 	call	0x3758	; 0x3758 <__divsf3>
    1aa2:	f8 01       	movw	r30, r16
    1aa4:	61 93       	st	Z+, r22
    1aa6:	71 93       	st	Z+, r23
    1aa8:	81 93       	st	Z+, r24
    1aaa:	91 93       	st	Z+, r25
    1aac:	8f 01       	movw	r16, r30
    1aae:	ae 16       	cp	r10, r30
    1ab0:	bf 06       	cpc	r11, r31
    1ab2:	a9 f6       	brne	.-86     	; 0x1a5e <Read_IMU+0x274>
    1ab4:	6d 85       	ldd	r22, Y+13	; 0x0d
    1ab6:	7e 85       	ldd	r23, Y+14	; 0x0e
    1ab8:	8f 85       	ldd	r24, Y+15	; 0x0f
    1aba:	98 89       	ldd	r25, Y+16	; 0x10
    1abc:	0e 94 56 1c 	call	0x38ac	; 0x38ac <__floatsisf>
    1ac0:	9b 01       	movw	r18, r22
    1ac2:	ac 01       	movw	r20, r24
    1ac4:	0e 94 c4 1a 	call	0x3588	; 0x3588 <__addsf3>
    1ac8:	20 e0       	ldi	r18, 0x00	; 0
    1aca:	30 e0       	ldi	r19, 0x00	; 0
    1acc:	40 e0       	ldi	r20, 0x00	; 0
    1ace:	58 e3       	ldi	r21, 0x38	; 56
    1ad0:	0e 94 79 1d 	call	0x3af2	; 0x3af2 <__mulsf3>
    1ad4:	d7 01       	movw	r26, r14
    1ad6:	1c 96       	adiw	r26, 0x0c	; 12
    1ad8:	6d 93       	st	X+, r22
    1ada:	7d 93       	st	X+, r23
    1adc:	8d 93       	st	X+, r24
    1ade:	9c 93       	st	X, r25
    1ae0:	1f 97       	sbiw	r26, 0x0f	; 15
    1ae2:	89 89       	ldd	r24, Y+17	; 0x11
    1ae4:	9a 89       	ldd	r25, Y+18	; 0x12
    1ae6:	ab 89       	ldd	r26, Y+19	; 0x13
    1ae8:	bc 89       	ldd	r27, Y+20	; 0x14
    1aea:	9c 01       	movw	r18, r24
    1aec:	ad 01       	movw	r20, r26
    1aee:	66 27       	eor	r22, r22
    1af0:	77 27       	eor	r23, r23
    1af2:	cb 01       	movw	r24, r22
    1af4:	62 1b       	sub	r22, r18
    1af6:	73 0b       	sbc	r23, r19
    1af8:	84 0b       	sbc	r24, r20
    1afa:	95 0b       	sbc	r25, r21
    1afc:	0e 94 56 1c 	call	0x38ac	; 0x38ac <__floatsisf>
    1b00:	9b 01       	movw	r18, r22
    1b02:	ac 01       	movw	r20, r24
    1b04:	0e 94 c4 1a 	call	0x3588	; 0x3588 <__addsf3>
    1b08:	20 e0       	ldi	r18, 0x00	; 0
    1b0a:	30 e0       	ldi	r19, 0x00	; 0
    1b0c:	40 e0       	ldi	r20, 0x00	; 0
    1b0e:	58 e3       	ldi	r21, 0x38	; 56
    1b10:	0e 94 79 1d 	call	0x3af2	; 0x3af2 <__mulsf3>
    1b14:	d7 01       	movw	r26, r14
    1b16:	50 96       	adiw	r26, 0x10	; 16
    1b18:	6d 93       	st	X+, r22
    1b1a:	7d 93       	st	X+, r23
    1b1c:	8d 93       	st	X+, r24
    1b1e:	9c 93       	st	X, r25
    1b20:	53 97       	sbiw	r26, 0x13	; 19
    1b22:	6d 89       	ldd	r22, Y+21	; 0x15
    1b24:	7e 89       	ldd	r23, Y+22	; 0x16
    1b26:	8f 89       	ldd	r24, Y+23	; 0x17
    1b28:	98 8d       	ldd	r25, Y+24	; 0x18
    1b2a:	0e 94 56 1c 	call	0x38ac	; 0x38ac <__floatsisf>
    1b2e:	9b 01       	movw	r18, r22
    1b30:	ac 01       	movw	r20, r24
    1b32:	0e 94 c4 1a 	call	0x3588	; 0x3588 <__addsf3>
    1b36:	20 e0       	ldi	r18, 0x00	; 0
    1b38:	30 e0       	ldi	r19, 0x00	; 0
    1b3a:	40 e0       	ldi	r20, 0x00	; 0
    1b3c:	58 e3       	ldi	r21, 0x38	; 56
    1b3e:	0e 94 79 1d 	call	0x3af2	; 0x3af2 <__mulsf3>
    1b42:	f7 01       	movw	r30, r14
    1b44:	64 8b       	std	Z+20, r22	; 0x14
    1b46:	75 8b       	std	Z+21, r23	; 0x15
    1b48:	86 8b       	std	Z+22, r24	; 0x16
    1b4a:	97 8b       	std	Z+23, r25	; 0x17
    1b4c:	81 e0       	ldi	r24, 0x01	; 1
    1b4e:	01 c0       	rjmp	.+2      	; 0x1b52 <Read_IMU+0x368>
    1b50:	80 e0       	ldi	r24, 0x00	; 0
    1b52:	aa 96       	adiw	r28, 0x2a	; 42
    1b54:	cd bf       	out	0x3d, r28	; 61
    1b56:	de bf       	out	0x3e, r29	; 62
    1b58:	df 91       	pop	r29
    1b5a:	cf 91       	pop	r28
    1b5c:	1f 91       	pop	r17
    1b5e:	0f 91       	pop	r16
    1b60:	ff 90       	pop	r15
    1b62:	ef 90       	pop	r14
    1b64:	df 90       	pop	r13
    1b66:	cf 90       	pop	r12
    1b68:	bf 90       	pop	r11
    1b6a:	af 90       	pop	r10
    1b6c:	9f 90       	pop	r9
    1b6e:	8f 90       	pop	r8
    1b70:	7f 90       	pop	r7
    1b72:	6f 90       	pop	r6
    1b74:	5f 90       	pop	r5
    1b76:	4f 90       	pop	r4
    1b78:	3f 90       	pop	r3
    1b7a:	2f 90       	pop	r2
    1b7c:	08 95       	ret

00001b7e <Setup_Mag>:
    1b7e:	0f 93       	push	r16
    1b80:	1f 93       	push	r17
    1b82:	cf 93       	push	r28
    1b84:	df 93       	push	r29
    1b86:	1f 92       	push	r1
    1b88:	cd b7       	in	r28, 0x3d	; 61
    1b8a:	de b7       	in	r29, 0x3e	; 62
    1b8c:	19 82       	std	Y+1, r1	; 0x01
    1b8e:	24 e3       	ldi	r18, 0x34	; 52
    1b90:	42 e6       	ldi	r20, 0x62	; 98
    1b92:	63 e0       	ldi	r22, 0x03	; 3
    1b94:	82 e4       	ldi	r24, 0x42	; 66
    1b96:	0e 94 af 02 	call	0x55e	; 0x55e <Write_SPI>
    1b9a:	18 2f       	mov	r17, r24
    1b9c:	01 e0       	ldi	r16, 0x01	; 1
    1b9e:	9e 01       	movw	r18, r28
    1ba0:	2f 5f       	subi	r18, 0xFF	; 255
    1ba2:	3f 4f       	sbci	r19, 0xFF	; 255
    1ba4:	4f ec       	ldi	r20, 0xCF	; 207
    1ba6:	63 e0       	ldi	r22, 0x03	; 3
    1ba8:	82 e4       	ldi	r24, 0x42	; 66
    1baa:	0e 94 0f 02 	call	0x41e	; 0x41e <Read_SPI>
    1bae:	81 23       	and	r24, r17
    1bb0:	18 2f       	mov	r17, r24
    1bb2:	12 70       	andi	r17, 0x02	; 2
    1bb4:	2c e8       	ldi	r18, 0x8C	; 140
    1bb6:	40 e6       	ldi	r20, 0x60	; 96
    1bb8:	63 e0       	ldi	r22, 0x03	; 3
    1bba:	82 e4       	ldi	r24, 0x42	; 66
    1bbc:	0e 94 af 02 	call	0x55e	; 0x55e <Write_SPI>
    1bc0:	18 23       	and	r17, r24
    1bc2:	21 e0       	ldi	r18, 0x01	; 1
    1bc4:	41 e6       	ldi	r20, 0x61	; 97
    1bc6:	63 e0       	ldi	r22, 0x03	; 3
    1bc8:	82 e4       	ldi	r24, 0x42	; 66
    1bca:	0e 94 af 02 	call	0x55e	; 0x55e <Write_SPI>
    1bce:	18 23       	and	r17, r24
    1bd0:	81 e0       	ldi	r24, 0x01	; 1
    1bd2:	12 30       	cpi	r17, 0x02	; 2
    1bd4:	09 f0       	breq	.+2      	; 0x1bd8 <Setup_Mag+0x5a>
    1bd6:	80 e0       	ldi	r24, 0x00	; 0
    1bd8:	0f 90       	pop	r0
    1bda:	df 91       	pop	r29
    1bdc:	cf 91       	pop	r28
    1bde:	1f 91       	pop	r17
    1be0:	0f 91       	pop	r16
    1be2:	08 95       	ret

00001be4 <Read_Mag>:
    1be4:	2f 92       	push	r2
    1be6:	3f 92       	push	r3
    1be8:	4f 92       	push	r4
    1bea:	5f 92       	push	r5
    1bec:	6f 92       	push	r6
    1bee:	7f 92       	push	r7
    1bf0:	8f 92       	push	r8
    1bf2:	9f 92       	push	r9
    1bf4:	af 92       	push	r10
    1bf6:	bf 92       	push	r11
    1bf8:	cf 92       	push	r12
    1bfa:	df 92       	push	r13
    1bfc:	ef 92       	push	r14
    1bfe:	ff 92       	push	r15
    1c00:	0f 93       	push	r16
    1c02:	1f 93       	push	r17
    1c04:	cf 93       	push	r28
    1c06:	df 93       	push	r29
    1c08:	cd b7       	in	r28, 0x3d	; 61
    1c0a:	de b7       	in	r29, 0x3e	; 62
    1c0c:	62 97       	sbiw	r28, 0x12	; 18
    1c0e:	cd bf       	out	0x3d, r28	; 61
    1c10:	de bf       	out	0x3e, r29	; 62
    1c12:	5c 01       	movw	r10, r24
    1c14:	9e 01       	movw	r18, r28
    1c16:	23 5f       	subi	r18, 0xF3	; 243
    1c18:	3f 4f       	sbci	r19, 0xFF	; 255
    1c1a:	86 e0       	ldi	r24, 0x06	; 6
    1c1c:	d9 01       	movw	r26, r18
    1c1e:	1d 92       	st	X+, r1
    1c20:	8a 95       	dec	r24
    1c22:	e9 f7       	brne	.-6      	; 0x1c1e <Read_Mag+0x3a>
    1c24:	06 e0       	ldi	r16, 0x06	; 6
    1c26:	48 ee       	ldi	r20, 0xE8	; 232
    1c28:	63 e0       	ldi	r22, 0x03	; 3
    1c2a:	82 e4       	ldi	r24, 0x42	; 66
    1c2c:	0e 94 0f 02 	call	0x41e	; 0x41e <Read_SPI>
    1c30:	82 30       	cpi	r24, 0x02	; 2
    1c32:	09 f0       	breq	.+2      	; 0x1c36 <Read_Mag+0x52>
    1c34:	86 c1       	rjmp	.+780    	; 0x1f42 <Read_Mag+0x35e>
    1c36:	40 91 52 4b 	lds	r20, 0x4B52	; 0x804b52 <window_counter.4902>
    1c3a:	84 2f       	mov	r24, r20
    1c3c:	90 e0       	ldi	r25, 0x00	; 0
    1c3e:	fc 01       	movw	r30, r24
    1c40:	ee 0f       	add	r30, r30
    1c42:	ff 1f       	adc	r31, r31
    1c44:	ee 50       	subi	r30, 0x0E	; 14
    1c46:	f5 4b       	sbci	r31, 0xB5	; 181
    1c48:	2e 85       	ldd	r18, Y+14	; 0x0e
    1c4a:	30 e0       	ldi	r19, 0x00	; 0
    1c4c:	32 2f       	mov	r19, r18
    1c4e:	22 27       	eor	r18, r18
    1c50:	5d 85       	ldd	r21, Y+13	; 0x0d
    1c52:	25 0f       	add	r18, r21
    1c54:	31 1d       	adc	r19, r1
    1c56:	20 83       	st	Z, r18
    1c58:	31 83       	std	Z+1, r19	; 0x01
    1c5a:	fc 01       	movw	r30, r24
    1c5c:	ee 0f       	add	r30, r30
    1c5e:	ff 1f       	adc	r31, r31
    1c60:	ee 5e       	subi	r30, 0xEE	; 238
    1c62:	f4 4b       	sbci	r31, 0xB4	; 180
    1c64:	28 89       	ldd	r18, Y+16	; 0x10
    1c66:	30 e0       	ldi	r19, 0x00	; 0
    1c68:	32 2f       	mov	r19, r18
    1c6a:	22 27       	eor	r18, r18
    1c6c:	5f 85       	ldd	r21, Y+15	; 0x0f
    1c6e:	25 0f       	add	r18, r21
    1c70:	31 1d       	adc	r19, r1
    1c72:	20 83       	st	Z, r18
    1c74:	31 83       	std	Z+1, r19	; 0x01
    1c76:	88 0f       	add	r24, r24
    1c78:	99 1f       	adc	r25, r25
    1c7a:	fc 01       	movw	r30, r24
    1c7c:	ee 5c       	subi	r30, 0xCE	; 206
    1c7e:	f4 4b       	sbci	r31, 0xB4	; 180
    1c80:	8a 89       	ldd	r24, Y+18	; 0x12
    1c82:	90 e0       	ldi	r25, 0x00	; 0
    1c84:	98 2f       	mov	r25, r24
    1c86:	88 27       	eor	r24, r24
    1c88:	29 89       	ldd	r18, Y+17	; 0x11
    1c8a:	82 0f       	add	r24, r18
    1c8c:	91 1d       	adc	r25, r1
    1c8e:	80 83       	st	Z, r24
    1c90:	91 83       	std	Z+1, r25	; 0x01
    1c92:	4f 5f       	subi	r20, 0xFF	; 255
    1c94:	40 31       	cpi	r20, 0x10	; 16
    1c96:	18 f4       	brcc	.+6      	; 0x1c9e <Read_Mag+0xba>
    1c98:	40 93 52 4b 	sts	0x4B52, r20	; 0x804b52 <window_counter.4902>
    1c9c:	50 c1       	rjmp	.+672    	; 0x1f3e <Read_Mag+0x35a>
    1c9e:	10 92 52 4b 	sts	0x4B52, r1	; 0x804b52 <window_counter.4902>
    1ca2:	fe 01       	movw	r30, r28
    1ca4:	31 96       	adiw	r30, 0x01	; 1
    1ca6:	4f 01       	movw	r8, r30
    1ca8:	8c e0       	ldi	r24, 0x0C	; 12
    1caa:	df 01       	movw	r26, r30
    1cac:	1d 92       	st	X+, r1
    1cae:	8a 95       	dec	r24
    1cb0:	e9 f7       	brne	.-6      	; 0x1cac <Read_Mag+0xc8>
    1cb2:	e0 ee       	ldi	r30, 0xE0	; 224
    1cb4:	fa e4       	ldi	r31, 0x4A	; 74
    1cb6:	96 ee       	ldi	r25, 0xE6	; 230
    1cb8:	29 2e       	mov	r2, r25
    1cba:	9a e4       	ldi	r25, 0x4A	; 74
    1cbc:	39 2e       	mov	r3, r25
    1cbe:	4c ee       	ldi	r20, 0xEC	; 236
    1cc0:	5a e4       	ldi	r21, 0x4A	; 74
    1cc2:	62 ef       	ldi	r22, 0xF2	; 242
    1cc4:	7a e4       	ldi	r23, 0x4A	; 74
    1cc6:	20 e0       	ldi	r18, 0x00	; 0
    1cc8:	30 e0       	ldi	r19, 0x00	; 0
    1cca:	80 e0       	ldi	r24, 0x00	; 0
    1ccc:	90 e0       	ldi	r25, 0x00	; 0
    1cce:	89 01       	movw	r16, r18
    1cd0:	00 0f       	add	r16, r16
    1cd2:	11 1f       	adc	r17, r17
    1cd4:	00 0f       	add	r16, r16
    1cd6:	11 1f       	adc	r17, r17
    1cd8:	08 0d       	add	r16, r8
    1cda:	19 1d       	adc	r17, r9
    1cdc:	d8 01       	movw	r26, r16
    1cde:	4d 90       	ld	r4, X+
    1ce0:	5d 90       	ld	r5, X+
    1ce2:	6d 90       	ld	r6, X+
    1ce4:	7c 90       	ld	r7, X
    1ce6:	6b 01       	movw	r12, r22
    1ce8:	c8 0e       	add	r12, r24
    1cea:	d9 1e       	adc	r13, r25
    1cec:	d6 01       	movw	r26, r12
    1cee:	ed 90       	ld	r14, X+
    1cf0:	fc 90       	ld	r15, X
    1cf2:	67 01       	movw	r12, r14
    1cf4:	ff 0c       	add	r15, r15
    1cf6:	ee 08       	sbc	r14, r14
    1cf8:	ff 08       	sbc	r15, r15
    1cfa:	c4 0c       	add	r12, r4
    1cfc:	d5 1c       	adc	r13, r5
    1cfe:	e6 1c       	adc	r14, r6
    1d00:	f7 1c       	adc	r15, r7
    1d02:	d8 01       	movw	r26, r16
    1d04:	cd 92       	st	X+, r12
    1d06:	dd 92       	st	X+, r13
    1d08:	ed 92       	st	X+, r14
    1d0a:	fc 92       	st	X, r15
    1d0c:	13 97       	sbiw	r26, 0x03	; 3
    1d0e:	02 96       	adiw	r24, 0x02	; 2
    1d10:	80 32       	cpi	r24, 0x20	; 32
    1d12:	91 05       	cpc	r25, r1
    1d14:	19 f7       	brne	.-58     	; 0x1cdc <Read_Mag+0xf8>
    1d16:	cd 90       	ld	r12, X+
    1d18:	dd 90       	ld	r13, X+
    1d1a:	ed 90       	ld	r14, X+
    1d1c:	fc 90       	ld	r15, X
    1d1e:	13 97       	sbiw	r26, 0x03	; 3
    1d20:	84 e0       	ldi	r24, 0x04	; 4
    1d22:	f5 94       	asr	r15
    1d24:	e7 94       	ror	r14
    1d26:	d7 94       	ror	r13
    1d28:	c7 94       	ror	r12
    1d2a:	8a 95       	dec	r24
    1d2c:	d1 f7       	brne	.-12     	; 0x1d22 <Read_Mag+0x13e>
    1d2e:	cd 92       	st	X+, r12
    1d30:	dd 92       	st	X+, r13
    1d32:	ed 92       	st	X+, r14
    1d34:	fc 92       	st	X, r15
    1d36:	13 97       	sbiw	r26, 0x03	; 3
    1d38:	4d 90       	ld	r4, X+
    1d3a:	5d 90       	ld	r5, X+
    1d3c:	6d 90       	ld	r6, X+
    1d3e:	7c 90       	ld	r7, X
    1d40:	da 01       	movw	r26, r20
    1d42:	8d 91       	ld	r24, X+
    1d44:	9c 91       	ld	r25, X
    1d46:	6c 01       	movw	r12, r24
    1d48:	09 2e       	mov	r0, r25
    1d4a:	00 0c       	add	r0, r0
    1d4c:	ee 08       	sbc	r14, r14
    1d4e:	ff 08       	sbc	r15, r15
    1d50:	d8 01       	movw	r26, r16
    1d52:	c4 14       	cp	r12, r4
    1d54:	d5 04       	cpc	r13, r5
    1d56:	e6 04       	cpc	r14, r6
    1d58:	f7 04       	cpc	r15, r7
    1d5a:	e4 f4       	brge	.+56     	; 0x1d94 <Read_Mag+0x1b0>
    1d5c:	4d 90       	ld	r4, X+
    1d5e:	5d 90       	ld	r5, X+
    1d60:	6d 90       	ld	r6, X+
    1d62:	7c 90       	ld	r7, X
    1d64:	da 01       	movw	r26, r20
    1d66:	4d 92       	st	X+, r4
    1d68:	5c 92       	st	X, r5
    1d6a:	d1 01       	movw	r26, r2
    1d6c:	8d 91       	ld	r24, X+
    1d6e:	9c 91       	ld	r25, X
    1d70:	82 01       	movw	r16, r4
    1d72:	57 fe       	sbrs	r5, 7
    1d74:	04 c0       	rjmp	.+8      	; 0x1d7e <Read_Mag+0x19a>
    1d76:	00 27       	eor	r16, r16
    1d78:	11 27       	eor	r17, r17
    1d7a:	04 19       	sub	r16, r4
    1d7c:	15 09       	sbc	r17, r5
    1d7e:	7c 01       	movw	r14, r24
    1d80:	97 ff       	sbrs	r25, 7
    1d82:	04 c0       	rjmp	.+8      	; 0x1d8c <Read_Mag+0x1a8>
    1d84:	ee 24       	eor	r14, r14
    1d86:	ff 24       	eor	r15, r15
    1d88:	e8 1a       	sub	r14, r24
    1d8a:	f9 0a       	sbc	r15, r25
    1d8c:	0e 15       	cp	r16, r14
    1d8e:	1f 05       	cpc	r17, r15
    1d90:	5c f5       	brge	.+86     	; 0x1de8 <Read_Mag+0x204>
    1d92:	2f c0       	rjmp	.+94     	; 0x1df2 <Read_Mag+0x20e>
    1d94:	4d 90       	ld	r4, X+
    1d96:	5d 90       	ld	r5, X+
    1d98:	6d 90       	ld	r6, X+
    1d9a:	7c 90       	ld	r7, X
    1d9c:	d1 01       	movw	r26, r2
    1d9e:	ed 90       	ld	r14, X+
    1da0:	fc 90       	ld	r15, X
    1da2:	67 01       	movw	r12, r14
    1da4:	ff 0c       	add	r15, r15
    1da6:	ee 08       	sbc	r14, r14
    1da8:	ff 08       	sbc	r15, r15
    1daa:	4c 14       	cp	r4, r12
    1dac:	5d 04       	cpc	r5, r13
    1dae:	6e 04       	cpc	r6, r14
    1db0:	7f 04       	cpc	r7, r15
    1db2:	4c f5       	brge	.+82     	; 0x1e06 <Read_Mag+0x222>
    1db4:	d8 01       	movw	r26, r16
    1db6:	4d 90       	ld	r4, X+
    1db8:	5d 90       	ld	r5, X+
    1dba:	6d 90       	ld	r6, X+
    1dbc:	7c 90       	ld	r7, X
    1dbe:	62 01       	movw	r12, r4
    1dc0:	d1 01       	movw	r26, r2
    1dc2:	4d 92       	st	X+, r4
    1dc4:	5c 92       	st	X, r5
    1dc6:	7c 01       	movw	r14, r24
    1dc8:	97 ff       	sbrs	r25, 7
    1dca:	04 c0       	rjmp	.+8      	; 0x1dd4 <Read_Mag+0x1f0>
    1dcc:	ee 24       	eor	r14, r14
    1dce:	ff 24       	eor	r15, r15
    1dd0:	e8 1a       	sub	r14, r24
    1dd2:	f9 0a       	sbc	r15, r25
    1dd4:	82 01       	movw	r16, r4
    1dd6:	d7 fe       	sbrs	r13, 7
    1dd8:	04 c0       	rjmp	.+8      	; 0x1de2 <Read_Mag+0x1fe>
    1dda:	00 27       	eor	r16, r16
    1ddc:	11 27       	eor	r17, r17
    1dde:	04 19       	sub	r16, r4
    1de0:	15 09       	sbc	r17, r5
    1de2:	e0 16       	cp	r14, r16
    1de4:	f1 06       	cpc	r15, r17
    1de6:	2c f4       	brge	.+10     	; 0x1df2 <Read_Mag+0x20e>
    1de8:	48 1a       	sub	r4, r24
    1dea:	59 0a       	sbc	r5, r25
    1dec:	40 82       	st	Z, r4
    1dee:	51 82       	std	Z+1, r5	; 0x01
    1df0:	04 c0       	rjmp	.+8      	; 0x1dfa <Read_Mag+0x216>
    1df2:	84 19       	sub	r24, r4
    1df4:	95 09       	sbc	r25, r5
    1df6:	80 83       	st	Z, r24
    1df8:	91 83       	std	Z+1, r25	; 0x01
    1dfa:	80 81       	ld	r24, Z
    1dfc:	91 81       	ldd	r25, Z+1	; 0x01
    1dfe:	95 95       	asr	r25
    1e00:	87 95       	ror	r24
    1e02:	80 83       	st	Z, r24
    1e04:	91 83       	std	Z+1, r25	; 0x01
    1e06:	2f 5f       	subi	r18, 0xFF	; 255
    1e08:	3f 4f       	sbci	r19, 0xFF	; 255
    1e0a:	32 96       	adiw	r30, 0x02	; 2
    1e0c:	b2 e0       	ldi	r27, 0x02	; 2
    1e0e:	2b 0e       	add	r2, r27
    1e10:	31 1c       	adc	r3, r1
    1e12:	4e 5f       	subi	r20, 0xFE	; 254
    1e14:	5f 4f       	sbci	r21, 0xFF	; 255
    1e16:	60 5e       	subi	r22, 0xE0	; 224
    1e18:	7f 4f       	sbci	r23, 0xFF	; 255
    1e1a:	23 30       	cpi	r18, 0x03	; 3
    1e1c:	31 05       	cpc	r19, r1
    1e1e:	09 f0       	breq	.+2      	; 0x1e22 <Read_Mag+0x23e>
    1e20:	54 cf       	rjmp	.-344    	; 0x1cca <Read_Mag+0xe6>
    1e22:	80 91 a5 4a 	lds	r24, 0x4AA5	; 0x804aa5 <g_seconds>
    1e26:	90 91 a6 4a 	lds	r25, 0x4AA6	; 0x804aa6 <g_seconds+0x1>
    1e2a:	a0 91 a7 4a 	lds	r26, 0x4AA7	; 0x804aa7 <g_seconds+0x2>
    1e2e:	b0 91 a8 4a 	lds	r27, 0x4AA8	; 0x804aa8 <g_seconds+0x3>
    1e32:	03 97       	sbiw	r24, 0x03	; 3
    1e34:	a1 05       	cpc	r26, r1
    1e36:	b1 05       	cpc	r27, r1
    1e38:	08 f4       	brcc	.+2      	; 0x1e3c <Read_Mag+0x258>
    1e3a:	81 c0       	rjmp	.+258    	; 0x1f3e <Read_Mag+0x35a>
    1e3c:	8d 81       	ldd	r24, Y+5	; 0x05
    1e3e:	9e 81       	ldd	r25, Y+6	; 0x06
    1e40:	af 81       	ldd	r26, Y+7	; 0x07
    1e42:	b8 85       	ldd	r27, Y+8	; 0x08
    1e44:	c0 90 e2 4a 	lds	r12, 0x4AE2	; 0x804ae2 <hard_iron.4901+0x2>
    1e48:	d0 90 e3 4a 	lds	r13, 0x4AE3	; 0x804ae3 <hard_iron.4901+0x3>
    1e4c:	0d 2c       	mov	r0, r13
    1e4e:	00 0c       	add	r0, r0
    1e50:	ee 08       	sbc	r14, r14
    1e52:	ff 08       	sbc	r15, r15
    1e54:	bc 01       	movw	r22, r24
    1e56:	cd 01       	movw	r24, r26
    1e58:	6c 19       	sub	r22, r12
    1e5a:	7d 09       	sbc	r23, r13
    1e5c:	8e 09       	sbc	r24, r14
    1e5e:	9f 09       	sbc	r25, r15
    1e60:	0e 94 56 1c 	call	0x38ac	; 0x38ac <__floatsisf>
    1e64:	2b 01       	movw	r4, r22
    1e66:	3c 01       	movw	r6, r24
    1e68:	c7 01       	movw	r24, r14
    1e6a:	b6 01       	movw	r22, r12
    1e6c:	0e 94 56 1c 	call	0x38ac	; 0x38ac <__floatsisf>
    1e70:	9b 01       	movw	r18, r22
    1e72:	ac 01       	movw	r20, r24
    1e74:	0e 94 c4 1a 	call	0x3588	; 0x3588 <__addsf3>
    1e78:	9b 01       	movw	r18, r22
    1e7a:	ac 01       	movw	r20, r24
    1e7c:	c3 01       	movw	r24, r6
    1e7e:	b2 01       	movw	r22, r4
    1e80:	0e 94 ac 1b 	call	0x3758	; 0x3758 <__divsf3>
    1e84:	f5 01       	movw	r30, r10
    1e86:	60 8f       	std	Z+24, r22	; 0x18
    1e88:	71 8f       	std	Z+25, r23	; 0x19
    1e8a:	82 8f       	std	Z+26, r24	; 0x1a
    1e8c:	93 8f       	std	Z+27, r25	; 0x1b
    1e8e:	89 81       	ldd	r24, Y+1	; 0x01
    1e90:	9a 81       	ldd	r25, Y+2	; 0x02
    1e92:	ab 81       	ldd	r26, Y+3	; 0x03
    1e94:	bc 81       	ldd	r27, Y+4	; 0x04
    1e96:	c0 90 e0 4a 	lds	r12, 0x4AE0	; 0x804ae0 <hard_iron.4901>
    1e9a:	d0 90 e1 4a 	lds	r13, 0x4AE1	; 0x804ae1 <hard_iron.4901+0x1>
    1e9e:	0d 2c       	mov	r0, r13
    1ea0:	00 0c       	add	r0, r0
    1ea2:	ee 08       	sbc	r14, r14
    1ea4:	ff 08       	sbc	r15, r15
    1ea6:	bc 01       	movw	r22, r24
    1ea8:	cd 01       	movw	r24, r26
    1eaa:	6c 19       	sub	r22, r12
    1eac:	7d 09       	sbc	r23, r13
    1eae:	8e 09       	sbc	r24, r14
    1eb0:	9f 09       	sbc	r25, r15
    1eb2:	0e 94 56 1c 	call	0x38ac	; 0x38ac <__floatsisf>
    1eb6:	2b 01       	movw	r4, r22
    1eb8:	3c 01       	movw	r6, r24
    1eba:	77 fa       	bst	r7, 7
    1ebc:	70 94       	com	r7
    1ebe:	77 f8       	bld	r7, 7
    1ec0:	70 94       	com	r7
    1ec2:	c7 01       	movw	r24, r14
    1ec4:	b6 01       	movw	r22, r12
    1ec6:	0e 94 56 1c 	call	0x38ac	; 0x38ac <__floatsisf>
    1eca:	9b 01       	movw	r18, r22
    1ecc:	ac 01       	movw	r20, r24
    1ece:	0e 94 c4 1a 	call	0x3588	; 0x3588 <__addsf3>
    1ed2:	9b 01       	movw	r18, r22
    1ed4:	ac 01       	movw	r20, r24
    1ed6:	c3 01       	movw	r24, r6
    1ed8:	b2 01       	movw	r22, r4
    1eda:	0e 94 ac 1b 	call	0x3758	; 0x3758 <__divsf3>
    1ede:	d5 01       	movw	r26, r10
    1ee0:	5c 96       	adiw	r26, 0x1c	; 28
    1ee2:	6d 93       	st	X+, r22
    1ee4:	7d 93       	st	X+, r23
    1ee6:	8d 93       	st	X+, r24
    1ee8:	9c 93       	st	X, r25
    1eea:	5f 97       	sbiw	r26, 0x1f	; 31
    1eec:	89 85       	ldd	r24, Y+9	; 0x09
    1eee:	9a 85       	ldd	r25, Y+10	; 0x0a
    1ef0:	ab 85       	ldd	r26, Y+11	; 0x0b
    1ef2:	bc 85       	ldd	r27, Y+12	; 0x0c
    1ef4:	c0 90 e4 4a 	lds	r12, 0x4AE4	; 0x804ae4 <hard_iron.4901+0x4>
    1ef8:	d0 90 e5 4a 	lds	r13, 0x4AE5	; 0x804ae5 <hard_iron.4901+0x5>
    1efc:	0d 2c       	mov	r0, r13
    1efe:	00 0c       	add	r0, r0
    1f00:	ee 08       	sbc	r14, r14
    1f02:	ff 08       	sbc	r15, r15
    1f04:	bc 01       	movw	r22, r24
    1f06:	cd 01       	movw	r24, r26
    1f08:	6c 19       	sub	r22, r12
    1f0a:	7d 09       	sbc	r23, r13
    1f0c:	8e 09       	sbc	r24, r14
    1f0e:	9f 09       	sbc	r25, r15
    1f10:	0e 94 56 1c 	call	0x38ac	; 0x38ac <__floatsisf>
    1f14:	2b 01       	movw	r4, r22
    1f16:	3c 01       	movw	r6, r24
    1f18:	c7 01       	movw	r24, r14
    1f1a:	b6 01       	movw	r22, r12
    1f1c:	0e 94 56 1c 	call	0x38ac	; 0x38ac <__floatsisf>
    1f20:	9b 01       	movw	r18, r22
    1f22:	ac 01       	movw	r20, r24
    1f24:	0e 94 c4 1a 	call	0x3588	; 0x3588 <__addsf3>
    1f28:	9b 01       	movw	r18, r22
    1f2a:	ac 01       	movw	r20, r24
    1f2c:	c3 01       	movw	r24, r6
    1f2e:	b2 01       	movw	r22, r4
    1f30:	0e 94 ac 1b 	call	0x3758	; 0x3758 <__divsf3>
    1f34:	f5 01       	movw	r30, r10
    1f36:	60 a3       	std	Z+32, r22	; 0x20
    1f38:	71 a3       	std	Z+33, r23	; 0x21
    1f3a:	82 a3       	std	Z+34, r24	; 0x22
    1f3c:	93 a3       	std	Z+35, r25	; 0x23
    1f3e:	81 e0       	ldi	r24, 0x01	; 1
    1f40:	01 c0       	rjmp	.+2      	; 0x1f44 <Read_Mag+0x360>
    1f42:	80 e0       	ldi	r24, 0x00	; 0
    1f44:	62 96       	adiw	r28, 0x12	; 18
    1f46:	cd bf       	out	0x3d, r28	; 61
    1f48:	de bf       	out	0x3e, r29	; 62
    1f4a:	df 91       	pop	r29
    1f4c:	cf 91       	pop	r28
    1f4e:	1f 91       	pop	r17
    1f50:	0f 91       	pop	r16
    1f52:	ff 90       	pop	r15
    1f54:	ef 90       	pop	r14
    1f56:	df 90       	pop	r13
    1f58:	cf 90       	pop	r12
    1f5a:	bf 90       	pop	r11
    1f5c:	af 90       	pop	r10
    1f5e:	9f 90       	pop	r9
    1f60:	8f 90       	pop	r8
    1f62:	7f 90       	pop	r7
    1f64:	6f 90       	pop	r6
    1f66:	5f 90       	pop	r5
    1f68:	4f 90       	pop	r4
    1f6a:	3f 90       	pop	r3
    1f6c:	2f 90       	pop	r2
    1f6e:	08 95       	ret

00001f70 <LLA_to_NED>:
    1f70:	4f 92       	push	r4
    1f72:	5f 92       	push	r5
    1f74:	6f 92       	push	r6
    1f76:	7f 92       	push	r7
    1f78:	8f 92       	push	r8
    1f7a:	9f 92       	push	r9
    1f7c:	af 92       	push	r10
    1f7e:	bf 92       	push	r11
    1f80:	cf 92       	push	r12
    1f82:	df 92       	push	r13
    1f84:	ef 92       	push	r14
    1f86:	ff 92       	push	r15
    1f88:	0f 93       	push	r16
    1f8a:	1f 93       	push	r17
    1f8c:	cf 93       	push	r28
    1f8e:	df 93       	push	r29
    1f90:	cd b7       	in	r28, 0x3d	; 61
    1f92:	de b7       	in	r29, 0x3e	; 62
    1f94:	6a 97       	sbiw	r28, 0x1a	; 26
    1f96:	cd bf       	out	0x3d, r28	; 61
    1f98:	de bf       	out	0x3e, r29	; 62
    1f9a:	49 01       	movw	r8, r18
    1f9c:	5a 01       	movw	r10, r20
    1f9e:	ed 86       	std	Y+13, r14	; 0x0d
    1fa0:	fe 86       	std	Y+14, r15	; 0x0e
    1fa2:	0f 87       	std	Y+15, r16	; 0x0f
    1fa4:	18 8b       	std	Y+16, r17	; 0x10
    1fa6:	c9 8e       	std	Y+25, r12	; 0x19
    1fa8:	da 8e       	std	Y+26, r13	; 0x1a
    1faa:	0e 94 56 1c 	call	0x38ac	; 0x38ac <__floatsisf>
    1fae:	20 e0       	ldi	r18, 0x00	; 0
    1fb0:	3b e1       	ldi	r19, 0x1B	; 27
    1fb2:	47 eb       	ldi	r20, 0xB7	; 183
    1fb4:	5a e4       	ldi	r21, 0x4A	; 74
    1fb6:	0e 94 ac 1b 	call	0x3758	; 0x3758 <__divsf3>
    1fba:	2b ed       	ldi	r18, 0xDB	; 219
    1fbc:	3f e0       	ldi	r19, 0x0F	; 15
    1fbe:	49 e4       	ldi	r20, 0x49	; 73
    1fc0:	50 e4       	ldi	r21, 0x40	; 64
    1fc2:	0e 94 79 1d 	call	0x3af2	; 0x3af2 <__mulsf3>
    1fc6:	20 e0       	ldi	r18, 0x00	; 0
    1fc8:	30 e0       	ldi	r19, 0x00	; 0
    1fca:	44 e3       	ldi	r20, 0x34	; 52
    1fcc:	53 e4       	ldi	r21, 0x43	; 67
    1fce:	0e 94 ac 1b 	call	0x3758	; 0x3758 <__divsf3>
    1fd2:	2b 01       	movw	r4, r22
    1fd4:	3c 01       	movw	r6, r24
    1fd6:	c5 01       	movw	r24, r10
    1fd8:	b4 01       	movw	r22, r8
    1fda:	0e 94 56 1c 	call	0x38ac	; 0x38ac <__floatsisf>
    1fde:	20 e0       	ldi	r18, 0x00	; 0
    1fe0:	3b e1       	ldi	r19, 0x1B	; 27
    1fe2:	47 eb       	ldi	r20, 0xB7	; 183
    1fe4:	5a e4       	ldi	r21, 0x4A	; 74
    1fe6:	0e 94 ac 1b 	call	0x3758	; 0x3758 <__divsf3>
    1fea:	2b ed       	ldi	r18, 0xDB	; 219
    1fec:	3f e0       	ldi	r19, 0x0F	; 15
    1fee:	49 e4       	ldi	r20, 0x49	; 73
    1ff0:	50 e4       	ldi	r21, 0x40	; 64
    1ff2:	0e 94 79 1d 	call	0x3af2	; 0x3af2 <__mulsf3>
    1ff6:	20 e0       	ldi	r18, 0x00	; 0
    1ff8:	30 e0       	ldi	r19, 0x00	; 0
    1ffa:	44 e3       	ldi	r20, 0x34	; 52
    1ffc:	53 e4       	ldi	r21, 0x43	; 67
    1ffe:	0e 94 ac 1b 	call	0x3758	; 0x3758 <__divsf3>
    2002:	6b 01       	movw	r12, r22
    2004:	7c 01       	movw	r14, r24
    2006:	c3 01       	movw	r24, r6
    2008:	b2 01       	movw	r22, r4
    200a:	0e 94 36 1e 	call	0x3c6c	; 0x3c6c <sin>
    200e:	69 83       	std	Y+1, r22	; 0x01
    2010:	7a 83       	std	Y+2, r23	; 0x02
    2012:	8b 83       	std	Y+3, r24	; 0x03
    2014:	9c 83       	std	Y+4, r25	; 0x04
    2016:	9b 01       	movw	r18, r22
    2018:	ac 01       	movw	r20, r24
    201a:	0e 94 79 1d 	call	0x3af2	; 0x3af2 <__mulsf3>
    201e:	28 e1       	ldi	r18, 0x18	; 24
    2020:	36 ef       	ldi	r19, 0xF6	; 246
    2022:	4b e3       	ldi	r20, 0x3B	; 59
    2024:	58 e3       	ldi	r21, 0x38	; 56
    2026:	0e 94 79 1d 	call	0x3af2	; 0x3af2 <__mulsf3>
    202a:	9b 01       	movw	r18, r22
    202c:	ac 01       	movw	r20, r24
    202e:	60 e0       	ldi	r22, 0x00	; 0
    2030:	70 e0       	ldi	r23, 0x00	; 0
    2032:	80 e8       	ldi	r24, 0x80	; 128
    2034:	9f e3       	ldi	r25, 0x3F	; 63
    2036:	0e 94 c3 1a 	call	0x3586	; 0x3586 <__subsf3>
    203a:	0e 94 44 1e 	call	0x3c88	; 0x3c88 <sqrt>
    203e:	9b 01       	movw	r18, r22
    2040:	ac 01       	movw	r20, r24
    2042:	62 e3       	ldi	r22, 0x32	; 50
    2044:	75 ea       	ldi	r23, 0xA5	; 165
    2046:	82 ec       	ldi	r24, 0xC2	; 194
    2048:	9a e4       	ldi	r25, 0x4A	; 74
    204a:	0e 94 ac 1b 	call	0x3758	; 0x3758 <__divsf3>
    204e:	4b 01       	movw	r8, r22
    2050:	5c 01       	movw	r10, r24
    2052:	c3 01       	movw	r24, r6
    2054:	b2 01       	movw	r22, r4
    2056:	0e 94 a7 1b 	call	0x374e	; 0x374e <cos>
    205a:	69 8b       	std	Y+17, r22	; 0x11
    205c:	7a 8b       	std	Y+18, r23	; 0x12
    205e:	8b 8b       	std	Y+19, r24	; 0x13
    2060:	9c 8b       	std	Y+20, r25	; 0x14
    2062:	2d 85       	ldd	r18, Y+13	; 0x0d
    2064:	3e 85       	ldd	r19, Y+14	; 0x0e
    2066:	4f 85       	ldd	r20, Y+15	; 0x0f
    2068:	58 89       	ldd	r21, Y+16	; 0x10
    206a:	c5 01       	movw	r24, r10
    206c:	b4 01       	movw	r22, r8
    206e:	0e 94 c4 1a 	call	0x3588	; 0x3588 <__addsf3>
    2072:	29 89       	ldd	r18, Y+17	; 0x11
    2074:	3a 89       	ldd	r19, Y+18	; 0x12
    2076:	4b 89       	ldd	r20, Y+19	; 0x13
    2078:	5c 89       	ldd	r21, Y+20	; 0x14
    207a:	0e 94 79 1d 	call	0x3af2	; 0x3af2 <__mulsf3>
    207e:	2b 01       	movw	r4, r22
    2080:	3c 01       	movw	r6, r24
    2082:	c7 01       	movw	r24, r14
    2084:	b6 01       	movw	r22, r12
    2086:	0e 94 a7 1b 	call	0x374e	; 0x374e <cos>
    208a:	69 87       	std	Y+9, r22	; 0x09
    208c:	7a 87       	std	Y+10, r23	; 0x0a
    208e:	8b 87       	std	Y+11, r24	; 0x0b
    2090:	9c 87       	std	Y+12, r25	; 0x0c
    2092:	9b 01       	movw	r18, r22
    2094:	ac 01       	movw	r20, r24
    2096:	c3 01       	movw	r24, r6
    2098:	b2 01       	movw	r22, r4
    209a:	0e 94 79 1d 	call	0x3af2	; 0x3af2 <__mulsf3>
    209e:	6d 83       	std	Y+5, r22	; 0x05
    20a0:	7e 83       	std	Y+6, r23	; 0x06
    20a2:	8f 83       	std	Y+7, r24	; 0x07
    20a4:	98 87       	std	Y+8, r25	; 0x08
    20a6:	c7 01       	movw	r24, r14
    20a8:	b6 01       	movw	r22, r12
    20aa:	0e 94 36 1e 	call	0x3c6c	; 0x3c6c <sin>
    20ae:	6b 01       	movw	r12, r22
    20b0:	7c 01       	movw	r14, r24
    20b2:	9b 01       	movw	r18, r22
    20b4:	ac 01       	movw	r20, r24
    20b6:	c3 01       	movw	r24, r6
    20b8:	b2 01       	movw	r22, r4
    20ba:	0e 94 79 1d 	call	0x3af2	; 0x3af2 <__mulsf3>
    20be:	2b 01       	movw	r4, r22
    20c0:	3c 01       	movw	r6, r24
    20c2:	20 e1       	ldi	r18, 0x10	; 16
    20c4:	3d ef       	ldi	r19, 0xFD	; 253
    20c6:	4f e7       	ldi	r20, 0x7F	; 127
    20c8:	5f e3       	ldi	r21, 0x3F	; 63
    20ca:	c5 01       	movw	r24, r10
    20cc:	b4 01       	movw	r22, r8
    20ce:	0e 94 79 1d 	call	0x3af2	; 0x3af2 <__mulsf3>
    20d2:	2d 85       	ldd	r18, Y+13	; 0x0d
    20d4:	3e 85       	ldd	r19, Y+14	; 0x0e
    20d6:	4f 85       	ldd	r20, Y+15	; 0x0f
    20d8:	58 89       	ldd	r21, Y+16	; 0x10
    20da:	0e 94 c4 1a 	call	0x3588	; 0x3588 <__addsf3>
    20de:	29 81       	ldd	r18, Y+1	; 0x01
    20e0:	3a 81       	ldd	r19, Y+2	; 0x02
    20e2:	4b 81       	ldd	r20, Y+3	; 0x03
    20e4:	5c 81       	ldd	r21, Y+4	; 0x04
    20e6:	0e 94 79 1d 	call	0x3af2	; 0x3af2 <__mulsf3>
    20ea:	4b 01       	movw	r8, r22
    20ec:	5c 01       	movw	r10, r24
    20ee:	80 91 bc 4a 	lds	r24, 0x4ABC	; 0x804abc <reference_flag.5012>
    20f2:	81 11       	cpse	r24, r1
    20f4:	20 c0       	rjmp	.+64     	; 0x2136 <LLA_to_NED+0x1c6>
    20f6:	91 e0       	ldi	r25, 0x01	; 1
    20f8:	90 93 bc 4a 	sts	0x4ABC, r25	; 0x804abc <reference_flag.5012>
    20fc:	2d 81       	ldd	r18, Y+5	; 0x05
    20fe:	3e 81       	ldd	r19, Y+6	; 0x06
    2100:	4f 81       	ldd	r20, Y+7	; 0x07
    2102:	58 85       	ldd	r21, Y+8	; 0x08
    2104:	20 93 b0 4a 	sts	0x4AB0, r18	; 0x804ab0 <Reference_Position_ecef.5010>
    2108:	30 93 b1 4a 	sts	0x4AB1, r19	; 0x804ab1 <Reference_Position_ecef.5010+0x1>
    210c:	40 93 b2 4a 	sts	0x4AB2, r20	; 0x804ab2 <Reference_Position_ecef.5010+0x2>
    2110:	50 93 b3 4a 	sts	0x4AB3, r21	; 0x804ab3 <Reference_Position_ecef.5010+0x3>
    2114:	40 92 b4 4a 	sts	0x4AB4, r4	; 0x804ab4 <Reference_Position_ecef.5010+0x4>
    2118:	50 92 b5 4a 	sts	0x4AB5, r5	; 0x804ab5 <Reference_Position_ecef.5010+0x5>
    211c:	60 92 b6 4a 	sts	0x4AB6, r6	; 0x804ab6 <Reference_Position_ecef.5010+0x6>
    2120:	70 92 b7 4a 	sts	0x4AB7, r7	; 0x804ab7 <Reference_Position_ecef.5010+0x7>
    2124:	80 92 b8 4a 	sts	0x4AB8, r8	; 0x804ab8 <Reference_Position_ecef.5010+0x8>
    2128:	90 92 b9 4a 	sts	0x4AB9, r9	; 0x804ab9 <Reference_Position_ecef.5010+0x9>
    212c:	a0 92 ba 4a 	sts	0x4ABA, r10	; 0x804aba <Reference_Position_ecef.5010+0xa>
    2130:	b0 92 bb 4a 	sts	0x4ABB, r11	; 0x804abb <Reference_Position_ecef.5010+0xb>
    2134:	c8 c0       	rjmp	.+400    	; 0x22c6 <LLA_to_NED+0x356>
    2136:	20 91 b0 4a 	lds	r18, 0x4AB0	; 0x804ab0 <Reference_Position_ecef.5010>
    213a:	30 91 b1 4a 	lds	r19, 0x4AB1	; 0x804ab1 <Reference_Position_ecef.5010+0x1>
    213e:	40 91 b2 4a 	lds	r20, 0x4AB2	; 0x804ab2 <Reference_Position_ecef.5010+0x2>
    2142:	50 91 b3 4a 	lds	r21, 0x4AB3	; 0x804ab3 <Reference_Position_ecef.5010+0x3>
    2146:	6d 81       	ldd	r22, Y+5	; 0x05
    2148:	7e 81       	ldd	r23, Y+6	; 0x06
    214a:	8f 81       	ldd	r24, Y+7	; 0x07
    214c:	98 85       	ldd	r25, Y+8	; 0x08
    214e:	0e 94 c3 1a 	call	0x3586	; 0x3586 <__subsf3>
    2152:	6d 83       	std	Y+5, r22	; 0x05
    2154:	7e 83       	std	Y+6, r23	; 0x06
    2156:	8f 83       	std	Y+7, r24	; 0x07
    2158:	98 87       	std	Y+8, r25	; 0x08
    215a:	20 91 b4 4a 	lds	r18, 0x4AB4	; 0x804ab4 <Reference_Position_ecef.5010+0x4>
    215e:	30 91 b5 4a 	lds	r19, 0x4AB5	; 0x804ab5 <Reference_Position_ecef.5010+0x5>
    2162:	40 91 b6 4a 	lds	r20, 0x4AB6	; 0x804ab6 <Reference_Position_ecef.5010+0x6>
    2166:	50 91 b7 4a 	lds	r21, 0x4AB7	; 0x804ab7 <Reference_Position_ecef.5010+0x7>
    216a:	c3 01       	movw	r24, r6
    216c:	b2 01       	movw	r22, r4
    216e:	0e 94 c3 1a 	call	0x3586	; 0x3586 <__subsf3>
    2172:	6d 8b       	std	Y+21, r22	; 0x15
    2174:	7e 8b       	std	Y+22, r23	; 0x16
    2176:	8f 8b       	std	Y+23, r24	; 0x17
    2178:	98 8f       	std	Y+24, r25	; 0x18
    217a:	69 81       	ldd	r22, Y+1	; 0x01
    217c:	7a 81       	ldd	r23, Y+2	; 0x02
    217e:	8b 81       	ldd	r24, Y+3	; 0x03
    2180:	9c 81       	ldd	r25, Y+4	; 0x04
    2182:	90 58       	subi	r25, 0x80	; 128
    2184:	29 85       	ldd	r18, Y+9	; 0x09
    2186:	3a 85       	ldd	r19, Y+10	; 0x0a
    2188:	4b 85       	ldd	r20, Y+11	; 0x0b
    218a:	5c 85       	ldd	r21, Y+12	; 0x0c
    218c:	0e 94 79 1d 	call	0x3af2	; 0x3af2 <__mulsf3>
    2190:	2d 81       	ldd	r18, Y+5	; 0x05
    2192:	3e 81       	ldd	r19, Y+6	; 0x06
    2194:	4f 81       	ldd	r20, Y+7	; 0x07
    2196:	58 85       	ldd	r21, Y+8	; 0x08
    2198:	0e 94 79 1d 	call	0x3af2	; 0x3af2 <__mulsf3>
    219c:	2b 01       	movw	r4, r22
    219e:	3c 01       	movw	r6, r24
    21a0:	a7 01       	movw	r20, r14
    21a2:	96 01       	movw	r18, r12
    21a4:	69 81       	ldd	r22, Y+1	; 0x01
    21a6:	7a 81       	ldd	r23, Y+2	; 0x02
    21a8:	8b 81       	ldd	r24, Y+3	; 0x03
    21aa:	9c 81       	ldd	r25, Y+4	; 0x04
    21ac:	0e 94 79 1d 	call	0x3af2	; 0x3af2 <__mulsf3>
    21b0:	2d 89       	ldd	r18, Y+21	; 0x15
    21b2:	3e 89       	ldd	r19, Y+22	; 0x16
    21b4:	4f 89       	ldd	r20, Y+23	; 0x17
    21b6:	58 8d       	ldd	r21, Y+24	; 0x18
    21b8:	0e 94 79 1d 	call	0x3af2	; 0x3af2 <__mulsf3>
    21bc:	9b 01       	movw	r18, r22
    21be:	ac 01       	movw	r20, r24
    21c0:	c3 01       	movw	r24, r6
    21c2:	b2 01       	movw	r22, r4
    21c4:	0e 94 c3 1a 	call	0x3586	; 0x3586 <__subsf3>
    21c8:	2b 01       	movw	r4, r22
    21ca:	3c 01       	movw	r6, r24
    21cc:	20 91 b8 4a 	lds	r18, 0x4AB8	; 0x804ab8 <Reference_Position_ecef.5010+0x8>
    21d0:	30 91 b9 4a 	lds	r19, 0x4AB9	; 0x804ab9 <Reference_Position_ecef.5010+0x9>
    21d4:	40 91 ba 4a 	lds	r20, 0x4ABA	; 0x804aba <Reference_Position_ecef.5010+0xa>
    21d8:	50 91 bb 4a 	lds	r21, 0x4ABB	; 0x804abb <Reference_Position_ecef.5010+0xb>
    21dc:	c5 01       	movw	r24, r10
    21de:	b4 01       	movw	r22, r8
    21e0:	0e 94 c3 1a 	call	0x3586	; 0x3586 <__subsf3>
    21e4:	29 89       	ldd	r18, Y+17	; 0x11
    21e6:	3a 89       	ldd	r19, Y+18	; 0x12
    21e8:	4b 89       	ldd	r20, Y+19	; 0x13
    21ea:	5c 89       	ldd	r21, Y+20	; 0x14
    21ec:	0e 94 79 1d 	call	0x3af2	; 0x3af2 <__mulsf3>
    21f0:	9b 01       	movw	r18, r22
    21f2:	ac 01       	movw	r20, r24
    21f4:	c3 01       	movw	r24, r6
    21f6:	b2 01       	movw	r22, r4
    21f8:	0e 94 c4 1a 	call	0x3588	; 0x3588 <__addsf3>
    21fc:	20 ed       	ldi	r18, 0xD0	; 208
    21fe:	3c ec       	ldi	r19, 0xCC	; 204
    2200:	4c ec       	ldi	r20, 0xCC	; 204
    2202:	5d e3       	ldi	r21, 0x3D	; 61
    2204:	0e 94 79 1d 	call	0x3af2	; 0x3af2 <__mulsf3>
    2208:	4b 01       	movw	r8, r22
    220a:	5c 01       	movw	r10, r24
    220c:	26 e6       	ldi	r18, 0x66	; 102
    220e:	36 e6       	ldi	r19, 0x66	; 102
    2210:	46 e6       	ldi	r20, 0x66	; 102
    2212:	5f e3       	ldi	r21, 0x3F	; 63
    2214:	e9 8d       	ldd	r30, Y+25	; 0x19
    2216:	fa 8d       	ldd	r31, Y+26	; 0x1a
    2218:	60 81       	ld	r22, Z
    221a:	71 81       	ldd	r23, Z+1	; 0x01
    221c:	82 81       	ldd	r24, Z+2	; 0x02
    221e:	93 81       	ldd	r25, Z+3	; 0x03
    2220:	0e 94 79 1d 	call	0x3af2	; 0x3af2 <__mulsf3>
    2224:	9b 01       	movw	r18, r22
    2226:	ac 01       	movw	r20, r24
    2228:	c5 01       	movw	r24, r10
    222a:	b4 01       	movw	r22, r8
    222c:	0e 94 c4 1a 	call	0x3588	; 0x3588 <__addsf3>
    2230:	e9 8d       	ldd	r30, Y+25	; 0x19
    2232:	fa 8d       	ldd	r31, Y+26	; 0x1a
    2234:	60 83       	st	Z, r22
    2236:	71 83       	std	Z+1, r23	; 0x01
    2238:	82 83       	std	Z+2, r24	; 0x02
    223a:	93 83       	std	Z+3, r25	; 0x03
    223c:	c7 01       	movw	r24, r14
    223e:	b6 01       	movw	r22, r12
    2240:	90 58       	subi	r25, 0x80	; 128
    2242:	2d 81       	ldd	r18, Y+5	; 0x05
    2244:	3e 81       	ldd	r19, Y+6	; 0x06
    2246:	4f 81       	ldd	r20, Y+7	; 0x07
    2248:	58 85       	ldd	r21, Y+8	; 0x08
    224a:	0e 94 79 1d 	call	0x3af2	; 0x3af2 <__mulsf3>
    224e:	4b 01       	movw	r8, r22
    2250:	5c 01       	movw	r10, r24
    2252:	2d 89       	ldd	r18, Y+21	; 0x15
    2254:	3e 89       	ldd	r19, Y+22	; 0x16
    2256:	4f 89       	ldd	r20, Y+23	; 0x17
    2258:	58 8d       	ldd	r21, Y+24	; 0x18
    225a:	69 85       	ldd	r22, Y+9	; 0x09
    225c:	7a 85       	ldd	r23, Y+10	; 0x0a
    225e:	8b 85       	ldd	r24, Y+11	; 0x0b
    2260:	9c 85       	ldd	r25, Y+12	; 0x0c
    2262:	0e 94 79 1d 	call	0x3af2	; 0x3af2 <__mulsf3>
    2266:	9b 01       	movw	r18, r22
    2268:	ac 01       	movw	r20, r24
    226a:	c5 01       	movw	r24, r10
    226c:	b4 01       	movw	r22, r8
    226e:	0e 94 c4 1a 	call	0x3588	; 0x3588 <__addsf3>
    2272:	20 ed       	ldi	r18, 0xD0	; 208
    2274:	3c ec       	ldi	r19, 0xCC	; 204
    2276:	4c ec       	ldi	r20, 0xCC	; 204
    2278:	5d e3       	ldi	r21, 0x3D	; 61
    227a:	0e 94 79 1d 	call	0x3af2	; 0x3af2 <__mulsf3>
    227e:	6b 01       	movw	r12, r22
    2280:	7c 01       	movw	r14, r24
    2282:	26 e6       	ldi	r18, 0x66	; 102
    2284:	36 e6       	ldi	r19, 0x66	; 102
    2286:	46 e6       	ldi	r20, 0x66	; 102
    2288:	5f e3       	ldi	r21, 0x3F	; 63
    228a:	e9 8d       	ldd	r30, Y+25	; 0x19
    228c:	fa 8d       	ldd	r31, Y+26	; 0x1a
    228e:	64 81       	ldd	r22, Z+4	; 0x04
    2290:	75 81       	ldd	r23, Z+5	; 0x05
    2292:	86 81       	ldd	r24, Z+6	; 0x06
    2294:	97 81       	ldd	r25, Z+7	; 0x07
    2296:	0e 94 79 1d 	call	0x3af2	; 0x3af2 <__mulsf3>
    229a:	9b 01       	movw	r18, r22
    229c:	ac 01       	movw	r20, r24
    229e:	c7 01       	movw	r24, r14
    22a0:	b6 01       	movw	r22, r12
    22a2:	0e 94 c4 1a 	call	0x3588	; 0x3588 <__addsf3>
    22a6:	e9 8d       	ldd	r30, Y+25	; 0x19
    22a8:	fa 8d       	ldd	r31, Y+26	; 0x1a
    22aa:	64 83       	std	Z+4, r22	; 0x04
    22ac:	75 83       	std	Z+5, r23	; 0x05
    22ae:	86 83       	std	Z+6, r24	; 0x06
    22b0:	97 83       	std	Z+7, r25	; 0x07
    22b2:	8d 85       	ldd	r24, Y+13	; 0x0d
    22b4:	9e 85       	ldd	r25, Y+14	; 0x0e
    22b6:	af 85       	ldd	r26, Y+15	; 0x0f
    22b8:	b8 89       	ldd	r27, Y+16	; 0x10
    22ba:	b0 58       	subi	r27, 0x80	; 128
    22bc:	80 87       	std	Z+8, r24	; 0x08
    22be:	91 87       	std	Z+9, r25	; 0x09
    22c0:	a2 87       	std	Z+10, r26	; 0x0a
    22c2:	b3 87       	std	Z+11, r27	; 0x0b
    22c4:	81 e0       	ldi	r24, 0x01	; 1
    22c6:	6a 96       	adiw	r28, 0x1a	; 26
    22c8:	cd bf       	out	0x3d, r28	; 61
    22ca:	de bf       	out	0x3e, r29	; 62
    22cc:	df 91       	pop	r29
    22ce:	cf 91       	pop	r28
    22d0:	1f 91       	pop	r17
    22d2:	0f 91       	pop	r16
    22d4:	ff 90       	pop	r15
    22d6:	ef 90       	pop	r14
    22d8:	df 90       	pop	r13
    22da:	cf 90       	pop	r12
    22dc:	bf 90       	pop	r11
    22de:	af 90       	pop	r10
    22e0:	9f 90       	pop	r9
    22e2:	8f 90       	pop	r8
    22e4:	7f 90       	pop	r7
    22e6:	6f 90       	pop	r6
    22e8:	5f 90       	pop	r5
    22ea:	4f 90       	pop	r4
    22ec:	08 95       	ret

000022ee <Read_GPS>:
    22ee:	2f 92       	push	r2
    22f0:	3f 92       	push	r3
    22f2:	4f 92       	push	r4
    22f4:	5f 92       	push	r5
    22f6:	6f 92       	push	r6
    22f8:	7f 92       	push	r7
    22fa:	8f 92       	push	r8
    22fc:	9f 92       	push	r9
    22fe:	af 92       	push	r10
    2300:	bf 92       	push	r11
    2302:	cf 92       	push	r12
    2304:	df 92       	push	r13
    2306:	ef 92       	push	r14
    2308:	ff 92       	push	r15
    230a:	0f 93       	push	r16
    230c:	1f 93       	push	r17
    230e:	cf 93       	push	r28
    2310:	df 93       	push	r29
    2312:	cd b7       	in	r28, 0x3d	; 61
    2314:	de b7       	in	r29, 0x3e	; 62
    2316:	cf 58       	subi	r28, 0x8F	; 143
    2318:	d1 09       	sbc	r29, r1
    231a:	cd bf       	out	0x3d, r28	; 61
    231c:	de bf       	out	0x3e, r29	; 62
    231e:	ac 01       	movw	r20, r24
    2320:	8d e0       	ldi	r24, 0x0D	; 13
    2322:	e7 e7       	ldi	r30, 0x77	; 119
    2324:	f0 e4       	ldi	r31, 0x40	; 64
    2326:	de 01       	movw	r26, r28
    2328:	ab 59       	subi	r26, 0x9B	; 155
    232a:	bf 4f       	sbci	r27, 0xFF	; 255
    232c:	01 90       	ld	r0, Z+
    232e:	0d 92       	st	X+, r0
    2330:	8a 95       	dec	r24
    2332:	e1 f7       	brne	.-8      	; 0x232c <Read_GPS+0x3e>
    2334:	8e 01       	movw	r16, r28
    2336:	0f 5f       	subi	r16, 0xFF	; 255
    2338:	1f 4f       	sbci	r17, 0xFF	; 255
    233a:	84 e6       	ldi	r24, 0x64	; 100
    233c:	d8 01       	movw	r26, r16
    233e:	1d 92       	st	X+, r1
    2340:	8a 95       	dec	r24
    2342:	e9 f7       	brne	.-6      	; 0x233e <Read_GPS+0x50>
    2344:	9f ef       	ldi	r25, 0xFF	; 255
    2346:	80 e0       	ldi	r24, 0x00	; 0
    2348:	20 e0       	ldi	r18, 0x00	; 0
    234a:	30 91 fc 4b 	lds	r19, 0x4BFC	; 0x804bfc <g_GPS_Data_Index>
    234e:	23 17       	cp	r18, r19
    2350:	b9 f1       	breq	.+110    	; 0x23c0 <Read_GPS+0xd2>
    2352:	62 2f       	mov	r22, r18
    2354:	70 e0       	ldi	r23, 0x00	; 0
    2356:	db 01       	movw	r26, r22
    2358:	a3 50       	subi	r26, 0x03	; 3
    235a:	b4 4b       	sbci	r27, 0xB4	; 180
    235c:	3c 91       	ld	r19, X
    235e:	dd 24       	eor	r13, r13
    2360:	d3 94       	inc	r13
    2362:	d2 0e       	add	r13, r18
    2364:	34 32       	cpi	r19, 0x24	; 36
    2366:	11 f4       	brne	.+4      	; 0x236c <Read_GPS+0x7e>
    2368:	92 2f       	mov	r25, r18
    236a:	21 c0       	rjmp	.+66     	; 0x23ae <Read_GPS+0xc0>
    236c:	3c 91       	ld	r19, X
    236e:	3a 32       	cpi	r19, 0x2A	; 42
    2370:	71 f4       	brne	.+28     	; 0x238e <Read_GPS+0xa0>
    2372:	9f 3f       	cpi	r25, 0xFF	; 255
    2374:	61 f0       	breq	.+24     	; 0x238e <Read_GPS+0xa0>
    2376:	ed 2d       	mov	r30, r13
    2378:	f0 e0       	ldi	r31, 0x00	; 0
    237a:	e3 50       	subi	r30, 0x03	; 3
    237c:	f4 4b       	sbci	r31, 0xB4	; 180
    237e:	d0 80       	ld	r13, Z
    2380:	e2 e0       	ldi	r30, 0x02	; 2
    2382:	e2 0f       	add	r30, r18
    2384:	f0 e0       	ldi	r31, 0x00	; 0
    2386:	e3 50       	subi	r30, 0x03	; 3
    2388:	f4 4b       	sbci	r31, 0xB4	; 180
    238a:	c0 80       	ld	r12, Z
    238c:	1c c0       	rjmp	.+56     	; 0x23c6 <Read_GPS+0xd8>
    238e:	3c 91       	ld	r19, X
    2390:	3c 32       	cpi	r19, 0x2C	; 44
    2392:	69 f4       	brne	.+26     	; 0x23ae <Read_GPS+0xc0>
    2394:	9f 3f       	cpi	r25, 0xFF	; 255
    2396:	91 f0       	breq	.+36     	; 0x23bc <Read_GPS+0xce>
    2398:	e5 e6       	ldi	r30, 0x65	; 101
    239a:	ee 2e       	mov	r14, r30
    239c:	f1 2c       	mov	r15, r1
    239e:	ec 0e       	add	r14, r28
    23a0:	fd 1e       	adc	r15, r29
    23a2:	e8 0e       	add	r14, r24
    23a4:	f1 1c       	adc	r15, r1
    23a6:	f7 01       	movw	r30, r14
    23a8:	20 83       	st	Z, r18
    23aa:	8f 5f       	subi	r24, 0xFF	; 255
    23ac:	02 c0       	rjmp	.+4      	; 0x23b2 <Read_GPS+0xc4>
    23ae:	9f 3f       	cpi	r25, 0xFF	; 255
    23b0:	29 f0       	breq	.+10     	; 0x23bc <Read_GPS+0xce>
    23b2:	2c 91       	ld	r18, X
    23b4:	d8 01       	movw	r26, r16
    23b6:	a6 0f       	add	r26, r22
    23b8:	b7 1f       	adc	r27, r23
    23ba:	2c 93       	st	X, r18
    23bc:	2d 2d       	mov	r18, r13
    23be:	c5 cf       	rjmp	.-118    	; 0x234a <Read_GPS+0x5c>
    23c0:	c1 2c       	mov	r12, r1
    23c2:	d1 2c       	mov	r13, r1
    23c4:	2f ef       	ldi	r18, 0xFF	; 255
    23c6:	10 92 fc 4b 	sts	0x4BFC, r1	; 0x804bfc <g_GPS_Data_Index>
    23ca:	9f 3f       	cpi	r25, 0xFF	; 255
    23cc:	11 f4       	brne	.+4      	; 0x23d2 <Read_GPS+0xe4>
    23ce:	80 e0       	ldi	r24, 0x00	; 0
    23d0:	d6 c3       	rjmp	.+1964   	; 0x2b7e <Read_GPS+0x890>
    23d2:	2f 3f       	cpi	r18, 0xFF	; 255
    23d4:	e1 f3       	breq	.-8      	; 0x23ce <Read_GPS+0xe0>
    23d6:	e2 e0       	ldi	r30, 0x02	; 2
    23d8:	f0 e0       	ldi	r31, 0x00	; 0
    23da:	ec 0f       	add	r30, r28
    23dc:	fd 1f       	adc	r31, r29
    23de:	e9 0f       	add	r30, r25
    23e0:	f1 1d       	adc	r31, r1
    23e2:	97 fd       	sbrc	r25, 7
    23e4:	fa 95       	dec	r31
    23e6:	80 81       	ld	r24, Z
    23e8:	9e 5f       	subi	r25, 0xFE	; 254
    23ea:	02 2e       	mov	r0, r18
    23ec:	00 0c       	add	r0, r0
    23ee:	33 0b       	sbc	r19, r19
    23f0:	69 2f       	mov	r22, r25
    23f2:	70 e0       	ldi	r23, 0x00	; 0
    23f4:	26 17       	cp	r18, r22
    23f6:	37 07       	cpc	r19, r23
    23f8:	3c f0       	brlt	.+14     	; 0x2408 <Read_GPS+0x11a>
    23fa:	f8 01       	movw	r30, r16
    23fc:	e6 0f       	add	r30, r22
    23fe:	f7 1f       	adc	r31, r23
    2400:	60 81       	ld	r22, Z
    2402:	86 27       	eor	r24, r22
    2404:	9f 5f       	subi	r25, 0xFF	; 255
    2406:	f4 cf       	rjmp	.-24     	; 0x23f0 <Read_GPS+0x102>
    2408:	1a 01       	movw	r2, r20
    240a:	7e 01       	movw	r14, r28
    240c:	ff e7       	ldi	r31, 0x7F	; 127
    240e:	ef 0e       	add	r14, r31
    2410:	f1 1c       	adc	r15, r1
    2412:	d7 01       	movw	r26, r14
    2414:	1d 92       	st	X+, r1
    2416:	1d 92       	st	X+, r1
    2418:	1c 92       	st	X, r1
    241a:	28 2f       	mov	r18, r24
    241c:	08 2e       	mov	r0, r24
    241e:	00 0c       	add	r0, r0
    2420:	33 0b       	sbc	r19, r19
    2422:	3f 93       	push	r19
    2424:	8f 93       	push	r24
    2426:	8f e0       	ldi	r24, 0x0F	; 15
    2428:	92 e4       	ldi	r25, 0x42	; 66
    242a:	9f 93       	push	r25
    242c:	8f 93       	push	r24
    242e:	1f 92       	push	r1
    2430:	83 e0       	ldi	r24, 0x03	; 3
    2432:	8f 93       	push	r24
    2434:	ff 92       	push	r15
    2436:	ef 92       	push	r14
    2438:	0e 94 0c 28 	call	0x5018	; 0x5018 <snprintf>
    243c:	cd bf       	out	0x3d, r28	; 61
    243e:	de bf       	out	0x3e, r29	; 62
    2440:	81 30       	cpi	r24, 0x01	; 1
    2442:	39 f4       	brne	.+14     	; 0x2452 <Read_GPS+0x164>
    2444:	d7 01       	movw	r26, r14
    2446:	8c 91       	ld	r24, X
    2448:	11 96       	adiw	r26, 0x01	; 1
    244a:	8c 93       	st	X, r24
    244c:	11 97       	sbiw	r26, 0x01	; 1
    244e:	80 e3       	ldi	r24, 0x30	; 48
    2450:	8c 93       	st	X, r24
    2452:	f7 01       	movw	r30, r14
    2454:	80 81       	ld	r24, Z
    2456:	8d 11       	cpse	r24, r13
    2458:	ba cf       	rjmp	.-140    	; 0x23ce <Read_GPS+0xe0>
    245a:	81 81       	ldd	r24, Z+1	; 0x01
    245c:	c8 12       	cpse	r12, r24
    245e:	b7 cf       	rjmp	.-146    	; 0x23ce <Read_GPS+0xe0>
    2460:	a8 96       	adiw	r28, 0x28	; 40
    2462:	8f ad       	ldd	r24, Y+63	; 0x3f
    2464:	a8 97       	sbiw	r28, 0x28	; 40
    2466:	08 2e       	mov	r0, r24
    2468:	00 0c       	add	r0, r0
    246a:	99 0b       	sbc	r25, r25
    246c:	a7 96       	adiw	r28, 0x27	; 39
    246e:	2f ad       	ldd	r18, Y+63	; 0x3f
    2470:	a7 97       	sbiw	r28, 0x27	; 39
    2472:	02 2e       	mov	r0, r18
    2474:	00 0c       	add	r0, r0
    2476:	33 0b       	sbc	r19, r19
    2478:	ac 01       	movw	r20, r24
    247a:	42 1b       	sub	r20, r18
    247c:	53 0b       	sbc	r21, r19
    247e:	41 30       	cpi	r20, 0x01	; 1
    2480:	51 05       	cpc	r21, r1
    2482:	49 f0       	breq	.+18     	; 0x2496 <Read_GPS+0x1a8>
    2484:	e2 e0       	ldi	r30, 0x02	; 2
    2486:	f0 e0       	ldi	r31, 0x00	; 0
    2488:	ec 0f       	add	r30, r28
    248a:	fd 1f       	adc	r31, r29
    248c:	e2 0f       	add	r30, r18
    248e:	f3 1f       	adc	r31, r19
    2490:	20 81       	ld	r18, Z
    2492:	20 93 df 4a 	sts	0x4ADF, r18	; 0x804adf <GPS_Position_Status.4952>
    2496:	e1 96       	adiw	r28, 0x31	; 49
    2498:	2f ad       	ldd	r18, Y+63	; 0x3f
    249a:	e1 97       	sbiw	r28, 0x31	; 49
    249c:	02 2e       	mov	r0, r18
    249e:	00 0c       	add	r0, r0
    24a0:	33 0b       	sbc	r19, r19
    24a2:	e2 96       	adiw	r28, 0x32	; 50
    24a4:	4f ad       	ldd	r20, Y+63	; 0x3f
    24a6:	e2 97       	sbiw	r28, 0x32	; 50
    24a8:	04 2e       	mov	r0, r20
    24aa:	00 0c       	add	r0, r0
    24ac:	55 0b       	sbc	r21, r21
    24ae:	42 1b       	sub	r20, r18
    24b0:	53 0b       	sbc	r21, r19
    24b2:	41 30       	cpi	r20, 0x01	; 1
    24b4:	51 05       	cpc	r21, r1
    24b6:	49 f0       	breq	.+18     	; 0x24ca <Read_GPS+0x1dc>
    24b8:	e2 e0       	ldi	r30, 0x02	; 2
    24ba:	f0 e0       	ldi	r31, 0x00	; 0
    24bc:	ec 0f       	add	r30, r28
    24be:	fd 1f       	adc	r31, r29
    24c0:	e2 0f       	add	r30, r18
    24c2:	f3 1f       	adc	r31, r19
    24c4:	20 81       	ld	r18, Z
    24c6:	20 93 de 4a 	sts	0x4ADE, r18	; 0x804ade <GPS_Position_Mode.4953>
    24ca:	20 91 df 4a 	lds	r18, 0x4ADF	; 0x804adf <GPS_Position_Status.4952>
    24ce:	21 34       	cpi	r18, 0x41	; 65
    24d0:	09 f0       	breq	.+2      	; 0x24d4 <Read_GPS+0x1e6>
    24d2:	7d cf       	rjmp	.-262    	; 0x23ce <Read_GPS+0xe0>
    24d4:	20 91 de 4a 	lds	r18, 0x4ADE	; 0x804ade <GPS_Position_Mode.4953>
    24d8:	21 34       	cpi	r18, 0x41	; 65
    24da:	09 f0       	breq	.+2      	; 0x24de <Read_GPS+0x1f0>
    24dc:	78 cf       	rjmp	.-272    	; 0x23ce <Read_GPS+0xe0>
    24de:	a9 96       	adiw	r28, 0x29	; 41
    24e0:	ef ac       	ldd	r14, Y+63	; 0x3f
    24e2:	a9 97       	sbiw	r28, 0x29	; 41
    24e4:	0e 2c       	mov	r0, r14
    24e6:	00 0c       	add	r0, r0
    24e8:	ff 08       	sbc	r15, r15
    24ea:	97 01       	movw	r18, r14
    24ec:	28 1b       	sub	r18, r24
    24ee:	39 0b       	sbc	r19, r25
    24f0:	21 30       	cpi	r18, 0x01	; 1
    24f2:	31 05       	cpc	r19, r1
    24f4:	09 f4       	brne	.+2      	; 0x24f8 <Read_GPS+0x20a>
    24f6:	90 c0       	rjmp	.+288    	; 0x2618 <Read_GPS+0x32a>
    24f8:	e2 e0       	ldi	r30, 0x02	; 2
    24fa:	f0 e0       	ldi	r31, 0x00	; 0
    24fc:	ec 0f       	add	r30, r28
    24fe:	fd 1f       	adc	r31, r29
    2500:	e8 0f       	add	r30, r24
    2502:	f9 1f       	adc	r31, r25
    2504:	20 81       	ld	r18, Z
    2506:	ed 96       	adiw	r28, 0x3d	; 61
    2508:	2f af       	std	Y+63, r18	; 0x3f
    250a:	ed 97       	sbiw	r28, 0x3d	; 61
    250c:	fe 01       	movw	r30, r28
    250e:	e8 0f       	add	r30, r24
    2510:	f9 1f       	adc	r31, r25
    2512:	23 81       	ldd	r18, Z+3	; 0x03
    2514:	ee 96       	adiw	r28, 0x3e	; 62
    2516:	2f af       	std	Y+63, r18	; 0x3f
    2518:	ee 97       	sbiw	r28, 0x3e	; 62
    251a:	ef 96       	adiw	r28, 0x3f	; 63
    251c:	1f ae       	std	Y+63, r1	; 0x3f
    251e:	ef 97       	sbiw	r28, 0x3f	; 63
    2520:	fe 01       	movw	r30, r28
    2522:	e8 0f       	add	r30, r24
    2524:	f9 1f       	adc	r31, r25
    2526:	24 81       	ldd	r18, Z+4	; 0x04
    2528:	e9 96       	adiw	r28, 0x39	; 57
    252a:	2f af       	std	Y+63, r18	; 0x3f
    252c:	e9 97       	sbiw	r28, 0x39	; 57
    252e:	fe 01       	movw	r30, r28
    2530:	e8 0f       	add	r30, r24
    2532:	f9 1f       	adc	r31, r25
    2534:	25 81       	ldd	r18, Z+5	; 0x05
    2536:	ea 96       	adiw	r28, 0x3a	; 58
    2538:	2f af       	std	Y+63, r18	; 0x3f
    253a:	ea 97       	sbiw	r28, 0x3a	; 58
    253c:	eb 96       	adiw	r28, 0x3b	; 59
    253e:	1f ae       	std	Y+63, r1	; 0x3f
    2540:	eb 97       	sbiw	r28, 0x3b	; 59
    2542:	fe 01       	movw	r30, r28
    2544:	e8 0f       	add	r30, r24
    2546:	f9 1f       	adc	r31, r25
    2548:	27 81       	ldd	r18, Z+7	; 0x07
    254a:	e3 96       	adiw	r28, 0x33	; 51
    254c:	2f af       	std	Y+63, r18	; 0x3f
    254e:	e3 97       	sbiw	r28, 0x33	; 51
    2550:	fe 01       	movw	r30, r28
    2552:	e8 0f       	add	r30, r24
    2554:	f9 1f       	adc	r31, r25
    2556:	20 85       	ldd	r18, Z+8	; 0x08
    2558:	e4 96       	adiw	r28, 0x34	; 52
    255a:	2f af       	std	Y+63, r18	; 0x3f
    255c:	e4 97       	sbiw	r28, 0x34	; 52
    255e:	fe 01       	movw	r30, r28
    2560:	e8 0f       	add	r30, r24
    2562:	f9 1f       	adc	r31, r25
    2564:	21 85       	ldd	r18, Z+9	; 0x09
    2566:	e5 96       	adiw	r28, 0x35	; 53
    2568:	2f af       	std	Y+63, r18	; 0x3f
    256a:	e5 97       	sbiw	r28, 0x35	; 53
    256c:	fe 01       	movw	r30, r28
    256e:	e8 0f       	add	r30, r24
    2570:	f9 1f       	adc	r31, r25
    2572:	22 85       	ldd	r18, Z+10	; 0x0a
    2574:	e6 96       	adiw	r28, 0x36	; 54
    2576:	2f af       	std	Y+63, r18	; 0x3f
    2578:	e6 97       	sbiw	r28, 0x36	; 54
    257a:	fe 01       	movw	r30, r28
    257c:	e8 0f       	add	r30, r24
    257e:	f9 1f       	adc	r31, r25
    2580:	83 85       	ldd	r24, Z+11	; 0x0b
    2582:	e7 96       	adiw	r28, 0x37	; 55
    2584:	8f af       	std	Y+63, r24	; 0x3f
    2586:	e7 97       	sbiw	r28, 0x37	; 55
    2588:	e8 96       	adiw	r28, 0x38	; 56
    258a:	1f ae       	std	Y+63, r1	; 0x3f
    258c:	e8 97       	sbiw	r28, 0x38	; 56
    258e:	ce 01       	movw	r24, r28
    2590:	84 58       	subi	r24, 0x84	; 132
    2592:	9f 4f       	sbci	r25, 0xFF	; 255
    2594:	0e 94 7d 26 	call	0x4cfa	; 0x4cfa <atol>
    2598:	2b 01       	movw	r4, r22
    259a:	3c 01       	movw	r6, r24
    259c:	ce 01       	movw	r24, r28
    259e:	88 58       	subi	r24, 0x88	; 136
    25a0:	9f 4f       	sbci	r25, 0xFF	; 255
    25a2:	0e 94 7d 26 	call	0x4cfa	; 0x4cfa <atol>
    25a6:	4b 01       	movw	r8, r22
    25a8:	5c 01       	movw	r10, r24
    25aa:	ce 01       	movw	r24, r28
    25ac:	8e 58       	subi	r24, 0x8E	; 142
    25ae:	9f 4f       	sbci	r25, 0xFF	; 255
    25b0:	0e 94 7d 26 	call	0x4cfa	; 0x4cfa <atol>
    25b4:	ce 57       	subi	r28, 0x7E	; 126
    25b6:	df 4f       	sbci	r29, 0xFF	; 255
    25b8:	68 83       	st	Y, r22
    25ba:	79 83       	std	Y+1, r23	; 0x01
    25bc:	8a 83       	std	Y+2, r24	; 0x02
    25be:	9b 83       	std	Y+3, r25	; 0x03
    25c0:	c2 58       	subi	r28, 0x82	; 130
    25c2:	d0 40       	sbci	r29, 0x00	; 0
    25c4:	e0 91 dd 4a 	lds	r30, 0x4ADD	; 0x804add <window_counter.4954>
    25c8:	24 e0       	ldi	r18, 0x04	; 4
    25ca:	e2 9f       	mul	r30, r18
    25cc:	f0 01       	movw	r30, r0
    25ce:	11 24       	eor	r1, r1
    25d0:	e3 53       	subi	r30, 0x33	; 51
    25d2:	f5 4b       	sbci	r31, 0xB5	; 181
    25d4:	ac e3       	ldi	r26, 0x3C	; 60
    25d6:	b0 e0       	ldi	r27, 0x00	; 0
    25d8:	a3 01       	movw	r20, r6
    25da:	92 01       	movw	r18, r4
    25dc:	0e 94 8c 23 	call	0x4718	; 0x4718 <__muluhisi3>
    25e0:	9b 01       	movw	r18, r22
    25e2:	ac 01       	movw	r20, r24
    25e4:	28 0d       	add	r18, r8
    25e6:	39 1d       	adc	r19, r9
    25e8:	4a 1d       	adc	r20, r10
    25ea:	5b 1d       	adc	r21, r11
    25ec:	60 ea       	ldi	r22, 0xA0	; 160
    25ee:	76 e8       	ldi	r23, 0x86	; 134
    25f0:	81 e0       	ldi	r24, 0x01	; 1
    25f2:	90 e0       	ldi	r25, 0x00	; 0
    25f4:	0e 94 73 23 	call	0x46e6	; 0x46e6 <__mulsi3>
    25f8:	ce 57       	subi	r28, 0x7E	; 126
    25fa:	df 4f       	sbci	r29, 0xFF	; 255
    25fc:	28 81       	ld	r18, Y
    25fe:	39 81       	ldd	r19, Y+1	; 0x01
    2600:	4a 81       	ldd	r20, Y+2	; 0x02
    2602:	5b 81       	ldd	r21, Y+3	; 0x03
    2604:	c2 58       	subi	r28, 0x82	; 130
    2606:	d0 40       	sbci	r29, 0x00	; 0
    2608:	26 0f       	add	r18, r22
    260a:	37 1f       	adc	r19, r23
    260c:	48 1f       	adc	r20, r24
    260e:	59 1f       	adc	r21, r25
    2610:	20 83       	st	Z, r18
    2612:	31 83       	std	Z+1, r19	; 0x01
    2614:	42 83       	std	Z+2, r20	; 0x02
    2616:	53 83       	std	Z+3, r21	; 0x03
    2618:	aa 96       	adiw	r28, 0x2a	; 42
    261a:	ef ad       	ldd	r30, Y+63	; 0x3f
    261c:	aa 97       	sbiw	r28, 0x2a	; 42
    261e:	0e 2e       	mov	r0, r30
    2620:	00 0c       	add	r0, r0
    2622:	ff 0b       	sbc	r31, r31
    2624:	cf 01       	movw	r24, r30
    2626:	8e 19       	sub	r24, r14
    2628:	9f 09       	sbc	r25, r15
    262a:	01 97       	sbiw	r24, 0x01	; 1
    262c:	51 f1       	breq	.+84     	; 0x2682 <Read_GPS+0x394>
    262e:	80 91 dd 4a 	lds	r24, 0x4ADD	; 0x804add <window_counter.4954>
    2632:	34 e0       	ldi	r19, 0x04	; 4
    2634:	83 9f       	mul	r24, r19
    2636:	60 01       	movw	r12, r0
    2638:	11 24       	eor	r1, r1
    263a:	d6 01       	movw	r26, r12
    263c:	a3 53       	subi	r26, 0x33	; 51
    263e:	b5 4b       	sbci	r27, 0xB5	; 181
    2640:	6d 91       	ld	r22, X+
    2642:	7d 91       	ld	r23, X+
    2644:	8d 91       	ld	r24, X+
    2646:	9c 91       	ld	r25, X
    2648:	a2 e0       	ldi	r26, 0x02	; 2
    264a:	b0 e0       	ldi	r27, 0x00	; 0
    264c:	ac 0f       	add	r26, r28
    264e:	bd 1f       	adc	r27, r29
    2650:	ae 0d       	add	r26, r14
    2652:	bf 1d       	adc	r27, r15
    2654:	2c 91       	ld	r18, X
    2656:	2e 34       	cpi	r18, 0x4E	; 78
    2658:	21 f0       	breq	.+8      	; 0x2662 <Read_GPS+0x374>
    265a:	2f ef       	ldi	r18, 0xFF	; 255
    265c:	3f ef       	ldi	r19, 0xFF	; 255
    265e:	a9 01       	movw	r20, r18
    2660:	04 c0       	rjmp	.+8      	; 0x266a <Read_GPS+0x37c>
    2662:	21 e0       	ldi	r18, 0x01	; 1
    2664:	30 e0       	ldi	r19, 0x00	; 0
    2666:	40 e0       	ldi	r20, 0x00	; 0
    2668:	50 e0       	ldi	r21, 0x00	; 0
    266a:	d6 01       	movw	r26, r12
    266c:	a3 53       	subi	r26, 0x33	; 51
    266e:	b5 4b       	sbci	r27, 0xB5	; 181
    2670:	7d 01       	movw	r14, r26
    2672:	0e 94 73 23 	call	0x46e6	; 0x46e6 <__mulsi3>
    2676:	d7 01       	movw	r26, r14
    2678:	6d 93       	st	X+, r22
    267a:	7d 93       	st	X+, r23
    267c:	8d 93       	st	X+, r24
    267e:	9c 93       	st	X, r25
    2680:	13 97       	sbiw	r26, 0x03	; 3
    2682:	ab 96       	adiw	r28, 0x2b	; 43
    2684:	ef ac       	ldd	r14, Y+63	; 0x3f
    2686:	ab 97       	sbiw	r28, 0x2b	; 43
    2688:	0e 2c       	mov	r0, r14
    268a:	00 0c       	add	r0, r0
    268c:	ff 08       	sbc	r15, r15
    268e:	c7 01       	movw	r24, r14
    2690:	8e 1b       	sub	r24, r30
    2692:	9f 0b       	sbc	r25, r31
    2694:	01 97       	sbiw	r24, 0x01	; 1
    2696:	09 f4       	brne	.+2      	; 0x269a <Read_GPS+0x3ac>
    2698:	9e c0       	rjmp	.+316    	; 0x27d6 <Read_GPS+0x4e8>
    269a:	a2 e0       	ldi	r26, 0x02	; 2
    269c:	b0 e0       	ldi	r27, 0x00	; 0
    269e:	ac 0f       	add	r26, r28
    26a0:	bd 1f       	adc	r27, r29
    26a2:	ae 0f       	add	r26, r30
    26a4:	bf 1f       	adc	r27, r31
    26a6:	8c 91       	ld	r24, X
    26a8:	e9 96       	adiw	r28, 0x39	; 57
    26aa:	8f af       	std	Y+63, r24	; 0x3f
    26ac:	e9 97       	sbiw	r28, 0x39	; 57
    26ae:	de 01       	movw	r26, r28
    26b0:	ae 0f       	add	r26, r30
    26b2:	bf 1f       	adc	r27, r31
    26b4:	13 96       	adiw	r26, 0x03	; 3
    26b6:	8c 91       	ld	r24, X
    26b8:	ea 96       	adiw	r28, 0x3a	; 58
    26ba:	8f af       	std	Y+63, r24	; 0x3f
    26bc:	ea 97       	sbiw	r28, 0x3a	; 58
    26be:	de 01       	movw	r26, r28
    26c0:	ae 0f       	add	r26, r30
    26c2:	bf 1f       	adc	r27, r31
    26c4:	14 96       	adiw	r26, 0x04	; 4
    26c6:	8c 91       	ld	r24, X
    26c8:	eb 96       	adiw	r28, 0x3b	; 59
    26ca:	8f af       	std	Y+63, r24	; 0x3f
    26cc:	eb 97       	sbiw	r28, 0x3b	; 59
    26ce:	ec 96       	adiw	r28, 0x3c	; 60
    26d0:	1f ae       	std	Y+63, r1	; 0x3f
    26d2:	ec 97       	sbiw	r28, 0x3c	; 60
    26d4:	de 01       	movw	r26, r28
    26d6:	ae 0f       	add	r26, r30
    26d8:	bf 1f       	adc	r27, r31
    26da:	15 96       	adiw	r26, 0x05	; 5
    26dc:	8c 91       	ld	r24, X
    26de:	ed 96       	adiw	r28, 0x3d	; 61
    26e0:	8f af       	std	Y+63, r24	; 0x3f
    26e2:	ed 97       	sbiw	r28, 0x3d	; 61
    26e4:	de 01       	movw	r26, r28
    26e6:	ae 0f       	add	r26, r30
    26e8:	bf 1f       	adc	r27, r31
    26ea:	16 96       	adiw	r26, 0x06	; 6
    26ec:	8c 91       	ld	r24, X
    26ee:	ee 96       	adiw	r28, 0x3e	; 62
    26f0:	8f af       	std	Y+63, r24	; 0x3f
    26f2:	ee 97       	sbiw	r28, 0x3e	; 62
    26f4:	ef 96       	adiw	r28, 0x3f	; 63
    26f6:	1f ae       	std	Y+63, r1	; 0x3f
    26f8:	ef 97       	sbiw	r28, 0x3f	; 63
    26fa:	de 01       	movw	r26, r28
    26fc:	ae 0f       	add	r26, r30
    26fe:	bf 1f       	adc	r27, r31
    2700:	18 96       	adiw	r26, 0x08	; 8
    2702:	8c 91       	ld	r24, X
    2704:	e3 96       	adiw	r28, 0x33	; 51
    2706:	8f af       	std	Y+63, r24	; 0x3f
    2708:	e3 97       	sbiw	r28, 0x33	; 51
    270a:	de 01       	movw	r26, r28
    270c:	ae 0f       	add	r26, r30
    270e:	bf 1f       	adc	r27, r31
    2710:	19 96       	adiw	r26, 0x09	; 9
    2712:	8c 91       	ld	r24, X
    2714:	e4 96       	adiw	r28, 0x34	; 52
    2716:	8f af       	std	Y+63, r24	; 0x3f
    2718:	e4 97       	sbiw	r28, 0x34	; 52
    271a:	de 01       	movw	r26, r28
    271c:	ae 0f       	add	r26, r30
    271e:	bf 1f       	adc	r27, r31
    2720:	1a 96       	adiw	r26, 0x0a	; 10
    2722:	8c 91       	ld	r24, X
    2724:	e5 96       	adiw	r28, 0x35	; 53
    2726:	8f af       	std	Y+63, r24	; 0x3f
    2728:	e5 97       	sbiw	r28, 0x35	; 53
    272a:	de 01       	movw	r26, r28
    272c:	ae 0f       	add	r26, r30
    272e:	bf 1f       	adc	r27, r31
    2730:	1b 96       	adiw	r26, 0x0b	; 11
    2732:	8c 91       	ld	r24, X
    2734:	1b 97       	sbiw	r26, 0x0b	; 11
    2736:	e6 96       	adiw	r28, 0x36	; 54
    2738:	8f af       	std	Y+63, r24	; 0x3f
    273a:	e6 97       	sbiw	r28, 0x36	; 54
    273c:	fd 01       	movw	r30, r26
    273e:	84 85       	ldd	r24, Z+12	; 0x0c
    2740:	e7 96       	adiw	r28, 0x37	; 55
    2742:	8f af       	std	Y+63, r24	; 0x3f
    2744:	e7 97       	sbiw	r28, 0x37	; 55
    2746:	e8 96       	adiw	r28, 0x38	; 56
    2748:	1f ae       	std	Y+63, r1	; 0x3f
    274a:	e8 97       	sbiw	r28, 0x38	; 56
    274c:	ce 01       	movw	r24, r28
    274e:	88 58       	subi	r24, 0x88	; 136
    2750:	9f 4f       	sbci	r25, 0xFF	; 255
    2752:	0e 94 7d 26 	call	0x4cfa	; 0x4cfa <atol>
    2756:	4b 01       	movw	r8, r22
    2758:	5c 01       	movw	r10, r24
    275a:	ce 01       	movw	r24, r28
    275c:	84 58       	subi	r24, 0x84	; 132
    275e:	9f 4f       	sbci	r25, 0xFF	; 255
    2760:	0e 94 7d 26 	call	0x4cfa	; 0x4cfa <atol>
    2764:	2b 01       	movw	r4, r22
    2766:	3c 01       	movw	r6, r24
    2768:	ce 01       	movw	r24, r28
    276a:	8e 58       	subi	r24, 0x8E	; 142
    276c:	9f 4f       	sbci	r25, 0xFF	; 255
    276e:	0e 94 7d 26 	call	0x4cfa	; 0x4cfa <atol>
    2772:	ce 57       	subi	r28, 0x7E	; 126
    2774:	df 4f       	sbci	r29, 0xFF	; 255
    2776:	68 83       	st	Y, r22
    2778:	79 83       	std	Y+1, r23	; 0x01
    277a:	8a 83       	std	Y+2, r24	; 0x02
    277c:	9b 83       	std	Y+3, r25	; 0x03
    277e:	c2 58       	subi	r28, 0x82	; 130
    2780:	d0 40       	sbci	r29, 0x00	; 0
    2782:	e0 91 dd 4a 	lds	r30, 0x4ADD	; 0x804add <window_counter.4954>
    2786:	b4 e0       	ldi	r27, 0x04	; 4
    2788:	eb 9f       	mul	r30, r27
    278a:	f0 01       	movw	r30, r0
    278c:	11 24       	eor	r1, r1
    278e:	e3 54       	subi	r30, 0x43	; 67
    2790:	f5 4b       	sbci	r31, 0xB5	; 181
    2792:	ac e3       	ldi	r26, 0x3C	; 60
    2794:	b0 e0       	ldi	r27, 0x00	; 0
    2796:	a5 01       	movw	r20, r10
    2798:	94 01       	movw	r18, r8
    279a:	0e 94 8c 23 	call	0x4718	; 0x4718 <__muluhisi3>
    279e:	9b 01       	movw	r18, r22
    27a0:	ac 01       	movw	r20, r24
    27a2:	24 0d       	add	r18, r4
    27a4:	35 1d       	adc	r19, r5
    27a6:	46 1d       	adc	r20, r6
    27a8:	57 1d       	adc	r21, r7
    27aa:	60 ea       	ldi	r22, 0xA0	; 160
    27ac:	76 e8       	ldi	r23, 0x86	; 134
    27ae:	81 e0       	ldi	r24, 0x01	; 1
    27b0:	90 e0       	ldi	r25, 0x00	; 0
    27b2:	0e 94 73 23 	call	0x46e6	; 0x46e6 <__mulsi3>
    27b6:	ce 57       	subi	r28, 0x7E	; 126
    27b8:	df 4f       	sbci	r29, 0xFF	; 255
    27ba:	28 81       	ld	r18, Y
    27bc:	39 81       	ldd	r19, Y+1	; 0x01
    27be:	4a 81       	ldd	r20, Y+2	; 0x02
    27c0:	5b 81       	ldd	r21, Y+3	; 0x03
    27c2:	c2 58       	subi	r28, 0x82	; 130
    27c4:	d0 40       	sbci	r29, 0x00	; 0
    27c6:	26 0f       	add	r18, r22
    27c8:	37 1f       	adc	r19, r23
    27ca:	48 1f       	adc	r20, r24
    27cc:	59 1f       	adc	r21, r25
    27ce:	20 83       	st	Z, r18
    27d0:	31 83       	std	Z+1, r19	; 0x01
    27d2:	42 83       	std	Z+2, r20	; 0x02
    27d4:	53 83       	std	Z+3, r21	; 0x03
    27d6:	ac 96       	adiw	r28, 0x2c	; 44
    27d8:	df ac       	ldd	r13, Y+63	; 0x3f
    27da:	ac 97       	sbiw	r28, 0x2c	; 44
    27dc:	ed 2d       	mov	r30, r13
    27de:	0d 2c       	mov	r0, r13
    27e0:	00 0c       	add	r0, r0
    27e2:	ff 0b       	sbc	r31, r31
    27e4:	cf 01       	movw	r24, r30
    27e6:	8e 19       	sub	r24, r14
    27e8:	9f 09       	sbc	r25, r15
    27ea:	01 97       	sbiw	r24, 0x01	; 1
    27ec:	51 f1       	breq	.+84     	; 0x2842 <Read_GPS+0x554>
    27ee:	80 91 dd 4a 	lds	r24, 0x4ADD	; 0x804add <window_counter.4954>
    27f2:	34 e0       	ldi	r19, 0x04	; 4
    27f4:	83 9f       	mul	r24, r19
    27f6:	50 01       	movw	r10, r0
    27f8:	11 24       	eor	r1, r1
    27fa:	d5 01       	movw	r26, r10
    27fc:	a3 54       	subi	r26, 0x43	; 67
    27fe:	b5 4b       	sbci	r27, 0xB5	; 181
    2800:	6d 91       	ld	r22, X+
    2802:	7d 91       	ld	r23, X+
    2804:	8d 91       	ld	r24, X+
    2806:	9c 91       	ld	r25, X
    2808:	a2 e0       	ldi	r26, 0x02	; 2
    280a:	b0 e0       	ldi	r27, 0x00	; 0
    280c:	ac 0f       	add	r26, r28
    280e:	bd 1f       	adc	r27, r29
    2810:	ae 0d       	add	r26, r14
    2812:	bf 1d       	adc	r27, r15
    2814:	2c 91       	ld	r18, X
    2816:	27 35       	cpi	r18, 0x57	; 87
    2818:	29 f0       	breq	.+10     	; 0x2824 <Read_GPS+0x536>
    281a:	21 e0       	ldi	r18, 0x01	; 1
    281c:	30 e0       	ldi	r19, 0x00	; 0
    281e:	40 e0       	ldi	r20, 0x00	; 0
    2820:	50 e0       	ldi	r21, 0x00	; 0
    2822:	03 c0       	rjmp	.+6      	; 0x282a <Read_GPS+0x53c>
    2824:	2f ef       	ldi	r18, 0xFF	; 255
    2826:	3f ef       	ldi	r19, 0xFF	; 255
    2828:	a9 01       	movw	r20, r18
    282a:	d5 01       	movw	r26, r10
    282c:	a3 54       	subi	r26, 0x43	; 67
    282e:	b5 4b       	sbci	r27, 0xB5	; 181
    2830:	7d 01       	movw	r14, r26
    2832:	0e 94 73 23 	call	0x46e6	; 0x46e6 <__mulsi3>
    2836:	d7 01       	movw	r26, r14
    2838:	6d 93       	st	X+, r22
    283a:	7d 93       	st	X+, r23
    283c:	8d 93       	st	X+, r24
    283e:	9c 93       	st	X, r25
    2840:	13 97       	sbiw	r26, 0x03	; 3
    2842:	ad 96       	adiw	r28, 0x2d	; 45
    2844:	bf ac       	ldd	r11, Y+63	; 0x3f
    2846:	ad 97       	sbiw	r28, 0x2d	; 45
    2848:	eb 2c       	mov	r14, r11
    284a:	0b 2c       	mov	r0, r11
    284c:	00 0c       	add	r0, r0
    284e:	ff 08       	sbc	r15, r15
    2850:	c7 01       	movw	r24, r14
    2852:	8e 1b       	sub	r24, r30
    2854:	9f 0b       	sbc	r25, r31
    2856:	01 97       	sbiw	r24, 0x01	; 1
    2858:	e9 f1       	breq	.+122    	; 0x28d4 <Read_GPS+0x5e6>
    285a:	9b 2d       	mov	r25, r11
    285c:	9d 19       	sub	r25, r13
    285e:	6e 01       	movw	r12, r28
    2860:	b2 e7       	ldi	r27, 0x72	; 114
    2862:	cb 0e       	add	r12, r27
    2864:	d1 1c       	adc	r13, r1
    2866:	86 e0       	ldi	r24, 0x06	; 6
    2868:	d6 01       	movw	r26, r12
    286a:	1d 92       	st	X+, r1
    286c:	8a 95       	dec	r24
    286e:	e9 f7       	brne	.-6      	; 0x286a <Read_GPS+0x57c>
    2870:	31 96       	adiw	r30, 0x01	; 1
    2872:	e0 0f       	add	r30, r16
    2874:	f1 1f       	adc	r31, r17
    2876:	d6 01       	movw	r26, r12
    2878:	8a 2f       	mov	r24, r26
    287a:	8c 19       	sub	r24, r12
    287c:	89 17       	cp	r24, r25
    287e:	18 f4       	brcc	.+6      	; 0x2886 <Read_GPS+0x598>
    2880:	81 91       	ld	r24, Z+
    2882:	8d 93       	st	X+, r24
    2884:	f9 cf       	rjmp	.-14     	; 0x2878 <Read_GPS+0x58a>
    2886:	41 01       	movw	r8, r2
    2888:	b4 e5       	ldi	r27, 0x54	; 84
    288a:	8b 0e       	add	r8, r27
    288c:	91 1c       	adc	r9, r1
    288e:	26 e6       	ldi	r18, 0x66	; 102
    2890:	36 e6       	ldi	r19, 0x66	; 102
    2892:	46 e6       	ldi	r20, 0x66	; 102
    2894:	5f e3       	ldi	r21, 0x3F	; 63
    2896:	f4 01       	movw	r30, r8
    2898:	60 81       	ld	r22, Z
    289a:	71 81       	ldd	r23, Z+1	; 0x01
    289c:	82 81       	ldd	r24, Z+2	; 0x02
    289e:	93 81       	ldd	r25, Z+3	; 0x03
    28a0:	0e 94 79 1d 	call	0x3af2	; 0x3af2 <__mulsf3>
    28a4:	2b 01       	movw	r4, r22
    28a6:	3c 01       	movw	r6, r24
    28a8:	be 01       	movw	r22, r28
    28aa:	68 58       	subi	r22, 0x88	; 136
    28ac:	7f 4f       	sbci	r23, 0xFF	; 255
    28ae:	c6 01       	movw	r24, r12
    28b0:	0e 94 03 25 	call	0x4a06	; 0x4a06 <strtod>
    28b4:	2d ec       	ldi	r18, 0xCD	; 205
    28b6:	3c ec       	ldi	r19, 0xCC	; 204
    28b8:	4c ec       	ldi	r20, 0xCC	; 204
    28ba:	5d e3       	ldi	r21, 0x3D	; 61
    28bc:	0e 94 79 1d 	call	0x3af2	; 0x3af2 <__mulsf3>
    28c0:	a3 01       	movw	r20, r6
    28c2:	92 01       	movw	r18, r4
    28c4:	0e 94 c4 1a 	call	0x3588	; 0x3588 <__addsf3>
    28c8:	d4 01       	movw	r26, r8
    28ca:	6d 93       	st	X+, r22
    28cc:	7d 93       	st	X+, r23
    28ce:	8d 93       	st	X+, r24
    28d0:	9c 93       	st	X, r25
    28d2:	13 97       	sbiw	r26, 0x03	; 3
    28d4:	ae 96       	adiw	r28, 0x2e	; 46
    28d6:	8f ad       	ldd	r24, Y+63	; 0x3f
    28d8:	ae 97       	sbiw	r28, 0x2e	; 46
    28da:	28 2f       	mov	r18, r24
    28dc:	08 2e       	mov	r0, r24
    28de:	00 0c       	add	r0, r0
    28e0:	33 0b       	sbc	r19, r19
    28e2:	2e 19       	sub	r18, r14
    28e4:	3f 09       	sbc	r19, r15
    28e6:	21 30       	cpi	r18, 0x01	; 1
    28e8:	31 05       	cpc	r19, r1
    28ea:	01 f1       	breq	.+64     	; 0x292c <Read_GPS+0x63e>
    28ec:	98 2f       	mov	r25, r24
    28ee:	9b 19       	sub	r25, r11
    28f0:	bf ef       	ldi	r27, 0xFF	; 255
    28f2:	eb 1a       	sub	r14, r27
    28f4:	fb 0a       	sbc	r15, r27
    28f6:	f8 01       	movw	r30, r16
    28f8:	ee 0d       	add	r30, r14
    28fa:	ff 1d       	adc	r31, r15
    28fc:	9e 01       	movw	r18, r28
    28fe:	2e 58       	subi	r18, 0x8E	; 142
    2900:	3f 4f       	sbci	r19, 0xFF	; 255
    2902:	d9 01       	movw	r26, r18
    2904:	8a 2f       	mov	r24, r26
    2906:	82 1b       	sub	r24, r18
    2908:	89 17       	cp	r24, r25
    290a:	18 f4       	brcc	.+6      	; 0x2912 <Read_GPS+0x624>
    290c:	81 91       	ld	r24, Z+
    290e:	8d 93       	st	X+, r24
    2910:	f9 cf       	rjmp	.-14     	; 0x2904 <Read_GPS+0x616>
    2912:	be 01       	movw	r22, r28
    2914:	68 58       	subi	r22, 0x88	; 136
    2916:	7f 4f       	sbci	r23, 0xFF	; 255
    2918:	c9 01       	movw	r24, r18
    291a:	0e 94 03 25 	call	0x4a06	; 0x4a06 <strtod>
    291e:	f1 01       	movw	r30, r2
    2920:	e8 5a       	subi	r30, 0xA8	; 168
    2922:	ff 4f       	sbci	r31, 0xFF	; 255
    2924:	60 83       	st	Z, r22
    2926:	71 83       	std	Z+1, r23	; 0x01
    2928:	82 83       	std	Z+2, r24	; 0x02
    292a:	93 83       	std	Z+3, r25	; 0x03
    292c:	80 91 dd 4a 	lds	r24, 0x4ADD	; 0x804add <window_counter.4954>
    2930:	8f 5f       	subi	r24, 0xFF	; 255
    2932:	84 30       	cpi	r24, 0x04	; 4
    2934:	18 f4       	brcc	.+6      	; 0x293c <Read_GPS+0x64e>
    2936:	80 93 dd 4a 	sts	0x4ADD, r24	; 0x804add <window_counter.4954>
    293a:	49 cd       	rjmp	.-1390   	; 0x23ce <Read_GPS+0xe0>
    293c:	10 92 dd 4a 	sts	0x4ADD, r1	; 0x804add <window_counter.4954>
    2940:	ed ec       	ldi	r30, 0xCD	; 205
    2942:	fa e4       	ldi	r31, 0x4A	; 74
    2944:	ce 57       	subi	r28, 0x7E	; 126
    2946:	df 4f       	sbci	r29, 0xFF	; 255
    2948:	e8 83       	st	Y, r30
    294a:	f9 83       	std	Y+1, r31	; 0x01
    294c:	c2 58       	subi	r28, 0x82	; 130
    294e:	d0 40       	sbci	r29, 0x00	; 0
    2950:	ad eb       	ldi	r26, 0xBD	; 189
    2952:	ba e4       	ldi	r27, 0x4A	; 74
    2954:	c4 57       	subi	r28, 0x74	; 116
    2956:	df 4f       	sbci	r29, 0xFF	; 255
    2958:	a8 83       	st	Y, r26
    295a:	b9 83       	std	Y+1, r27	; 0x01
    295c:	cc 58       	subi	r28, 0x8C	; 140
    295e:	d0 40       	sbci	r29, 0x00	; 0
    2960:	61 2c       	mov	r6, r1
    2962:	71 2c       	mov	r7, r1
    2964:	81 2c       	mov	r8, r1
    2966:	91 2c       	mov	r9, r1
    2968:	c8 57       	subi	r28, 0x78	; 120
    296a:	df 4f       	sbci	r29, 0xFF	; 255
    296c:	18 82       	st	Y, r1
    296e:	c8 58       	subi	r28, 0x88	; 136
    2970:	d0 40       	sbci	r29, 0x00	; 0
    2972:	c7 57       	subi	r28, 0x77	; 119
    2974:	df 4f       	sbci	r29, 0xFF	; 255
    2976:	18 82       	st	Y, r1
    2978:	c9 58       	subi	r28, 0x89	; 137
    297a:	d0 40       	sbci	r29, 0x00	; 0
    297c:	c6 57       	subi	r28, 0x76	; 118
    297e:	df 4f       	sbci	r29, 0xFF	; 255
    2980:	18 82       	st	Y, r1
    2982:	ca 58       	subi	r28, 0x8A	; 138
    2984:	d0 40       	sbci	r29, 0x00	; 0
    2986:	c5 57       	subi	r28, 0x75	; 117
    2988:	df 4f       	sbci	r29, 0xFF	; 255
    298a:	18 82       	st	Y, r1
    298c:	cb 58       	subi	r28, 0x8B	; 139
    298e:	d0 40       	sbci	r29, 0x00	; 0
    2990:	b0 e0       	ldi	r27, 0x00	; 0
    2992:	a0 e0       	ldi	r26, 0x00	; 0
    2994:	c2 57       	subi	r28, 0x72	; 114
    2996:	df 4f       	sbci	r29, 0xFF	; 255
    2998:	18 82       	st	Y, r1
    299a:	ce 58       	subi	r28, 0x8E	; 142
    299c:	d0 40       	sbci	r29, 0x00	; 0
    299e:	c1 57       	subi	r28, 0x71	; 113
    29a0:	df 4f       	sbci	r29, 0xFF	; 255
    29a2:	18 82       	st	Y, r1
    29a4:	cf 58       	subi	r28, 0x8F	; 143
    29a6:	d0 40       	sbci	r29, 0x00	; 0
    29a8:	ca 57       	subi	r28, 0x7A	; 122
    29aa:	df 4f       	sbci	r29, 0xFF	; 255
    29ac:	18 82       	st	Y, r1
    29ae:	c6 58       	subi	r28, 0x86	; 134
    29b0:	d0 40       	sbci	r29, 0x00	; 0
    29b2:	c9 57       	subi	r28, 0x79	; 121
    29b4:	df 4f       	sbci	r29, 0xFF	; 255
    29b6:	18 82       	st	Y, r1
    29b8:	c7 58       	subi	r28, 0x87	; 135
    29ba:	d0 40       	sbci	r29, 0x00	; 0
    29bc:	41 2c       	mov	r4, r1
    29be:	51 2c       	mov	r5, r1
    29c0:	ce 57       	subi	r28, 0x7E	; 126
    29c2:	df 4f       	sbci	r29, 0xFF	; 255
    29c4:	e8 81       	ld	r30, Y
    29c6:	f9 81       	ldd	r31, Y+1	; 0x01
    29c8:	c2 58       	subi	r28, 0x82	; 130
    29ca:	d0 40       	sbci	r29, 0x00	; 0
    29cc:	61 91       	ld	r22, Z+
    29ce:	71 91       	ld	r23, Z+
    29d0:	81 91       	ld	r24, Z+
    29d2:	91 91       	ld	r25, Z+
    29d4:	ce 57       	subi	r28, 0x7E	; 126
    29d6:	df 4f       	sbci	r29, 0xFF	; 255
    29d8:	e8 83       	st	Y, r30
    29da:	f9 83       	std	Y+1, r31	; 0x01
    29dc:	c2 58       	subi	r28, 0x82	; 130
    29de:	d0 40       	sbci	r29, 0x00	; 0
    29e0:	6b 01       	movw	r12, r22
    29e2:	7c 01       	movw	r14, r24
    29e4:	ff 0c       	add	r15, r15
    29e6:	cc 08       	sbc	r12, r12
    29e8:	dc 2c       	mov	r13, r12
    29ea:	76 01       	movw	r14, r12
    29ec:	9b 01       	movw	r18, r22
    29ee:	ac 01       	movw	r20, r24
    29f0:	6c 2d       	mov	r22, r12
    29f2:	7c 2d       	mov	r23, r12
    29f4:	8c 2d       	mov	r24, r12
    29f6:	9c 2d       	mov	r25, r12
    29f8:	ab 2e       	mov	r10, r27
    29fa:	ba 2e       	mov	r11, r26
    29fc:	c2 57       	subi	r28, 0x72	; 114
    29fe:	df 4f       	sbci	r29, 0xFF	; 255
    2a00:	c8 80       	ld	r12, Y
    2a02:	ce 58       	subi	r28, 0x8E	; 142
    2a04:	d0 40       	sbci	r29, 0x00	; 0
    2a06:	c1 57       	subi	r28, 0x71	; 113
    2a08:	df 4f       	sbci	r29, 0xFF	; 255
    2a0a:	d8 80       	ld	r13, Y
    2a0c:	cf 58       	subi	r28, 0x8F	; 143
    2a0e:	d0 40       	sbci	r29, 0x00	; 0
    2a10:	ca 57       	subi	r28, 0x7A	; 122
    2a12:	df 4f       	sbci	r29, 0xFF	; 255
    2a14:	e8 80       	ld	r14, Y
    2a16:	c6 58       	subi	r28, 0x86	; 134
    2a18:	d0 40       	sbci	r29, 0x00	; 0
    2a1a:	c9 57       	subi	r28, 0x79	; 121
    2a1c:	df 4f       	sbci	r29, 0xFF	; 255
    2a1e:	f8 80       	ld	r15, Y
    2a20:	c7 58       	subi	r28, 0x87	; 135
    2a22:	d0 40       	sbci	r29, 0x00	; 0
    2a24:	82 01       	movw	r16, r4
    2a26:	0e 94 b5 23 	call	0x476a	; 0x476a <__adddi3>
    2a2a:	b2 2f       	mov	r27, r18
    2a2c:	a3 2f       	mov	r26, r19
    2a2e:	c2 57       	subi	r28, 0x72	; 114
    2a30:	df 4f       	sbci	r29, 0xFF	; 255
    2a32:	48 83       	st	Y, r20
    2a34:	ce 58       	subi	r28, 0x8E	; 142
    2a36:	d0 40       	sbci	r29, 0x00	; 0
    2a38:	c1 57       	subi	r28, 0x71	; 113
    2a3a:	df 4f       	sbci	r29, 0xFF	; 255
    2a3c:	58 83       	st	Y, r21
    2a3e:	cf 58       	subi	r28, 0x8F	; 143
    2a40:	d0 40       	sbci	r29, 0x00	; 0
    2a42:	ca 57       	subi	r28, 0x7A	; 122
    2a44:	df 4f       	sbci	r29, 0xFF	; 255
    2a46:	68 83       	st	Y, r22
    2a48:	c6 58       	subi	r28, 0x86	; 134
    2a4a:	d0 40       	sbci	r29, 0x00	; 0
    2a4c:	c9 57       	subi	r28, 0x79	; 121
    2a4e:	df 4f       	sbci	r29, 0xFF	; 255
    2a50:	78 83       	st	Y, r23
    2a52:	c7 58       	subi	r28, 0x87	; 135
    2a54:	d0 40       	sbci	r29, 0x00	; 0
    2a56:	2c 01       	movw	r4, r24
    2a58:	c4 57       	subi	r28, 0x74	; 116
    2a5a:	df 4f       	sbci	r29, 0xFF	; 255
    2a5c:	e8 81       	ld	r30, Y
    2a5e:	f9 81       	ldd	r31, Y+1	; 0x01
    2a60:	cc 58       	subi	r28, 0x8C	; 140
    2a62:	d0 40       	sbci	r29, 0x00	; 0
    2a64:	61 91       	ld	r22, Z+
    2a66:	71 91       	ld	r23, Z+
    2a68:	81 91       	ld	r24, Z+
    2a6a:	91 91       	ld	r25, Z+
    2a6c:	c4 57       	subi	r28, 0x74	; 116
    2a6e:	df 4f       	sbci	r29, 0xFF	; 255
    2a70:	e8 83       	st	Y, r30
    2a72:	f9 83       	std	Y+1, r31	; 0x01
    2a74:	cc 58       	subi	r28, 0x8C	; 140
    2a76:	d0 40       	sbci	r29, 0x00	; 0
    2a78:	6b 01       	movw	r12, r22
    2a7a:	7c 01       	movw	r14, r24
    2a7c:	ff 0c       	add	r15, r15
    2a7e:	cc 08       	sbc	r12, r12
    2a80:	dc 2c       	mov	r13, r12
    2a82:	76 01       	movw	r14, r12
    2a84:	9b 01       	movw	r18, r22
    2a86:	ac 01       	movw	r20, r24
    2a88:	6c 2d       	mov	r22, r12
    2a8a:	7c 2d       	mov	r23, r12
    2a8c:	8c 2d       	mov	r24, r12
    2a8e:	9c 2d       	mov	r25, r12
    2a90:	53 01       	movw	r10, r6
    2a92:	64 01       	movw	r12, r8
    2a94:	c8 57       	subi	r28, 0x78	; 120
    2a96:	df 4f       	sbci	r29, 0xFF	; 255
    2a98:	e8 80       	ld	r14, Y
    2a9a:	c8 58       	subi	r28, 0x88	; 136
    2a9c:	d0 40       	sbci	r29, 0x00	; 0
    2a9e:	c7 57       	subi	r28, 0x77	; 119
    2aa0:	df 4f       	sbci	r29, 0xFF	; 255
    2aa2:	f8 80       	ld	r15, Y
    2aa4:	c9 58       	subi	r28, 0x89	; 137
    2aa6:	d0 40       	sbci	r29, 0x00	; 0
    2aa8:	c6 57       	subi	r28, 0x76	; 118
    2aaa:	df 4f       	sbci	r29, 0xFF	; 255
    2aac:	08 81       	ld	r16, Y
    2aae:	ca 58       	subi	r28, 0x8A	; 138
    2ab0:	d0 40       	sbci	r29, 0x00	; 0
    2ab2:	c5 57       	subi	r28, 0x75	; 117
    2ab4:	df 4f       	sbci	r29, 0xFF	; 255
    2ab6:	18 81       	ld	r17, Y
    2ab8:	cb 58       	subi	r28, 0x8B	; 139
    2aba:	d0 40       	sbci	r29, 0x00	; 0
    2abc:	0e 94 b5 23 	call	0x476a	; 0x476a <__adddi3>
    2ac0:	39 01       	movw	r6, r18
    2ac2:	4a 01       	movw	r8, r20
    2ac4:	c8 57       	subi	r28, 0x78	; 120
    2ac6:	df 4f       	sbci	r29, 0xFF	; 255
    2ac8:	68 83       	st	Y, r22
    2aca:	c8 58       	subi	r28, 0x88	; 136
    2acc:	d0 40       	sbci	r29, 0x00	; 0
    2ace:	c7 57       	subi	r28, 0x77	; 119
    2ad0:	df 4f       	sbci	r29, 0xFF	; 255
    2ad2:	78 83       	st	Y, r23
    2ad4:	c9 58       	subi	r28, 0x89	; 137
    2ad6:	d0 40       	sbci	r29, 0x00	; 0
    2ad8:	c6 57       	subi	r28, 0x76	; 118
    2ada:	df 4f       	sbci	r29, 0xFF	; 255
    2adc:	88 83       	st	Y, r24
    2ade:	ca 58       	subi	r28, 0x8A	; 138
    2ae0:	d0 40       	sbci	r29, 0x00	; 0
    2ae2:	c5 57       	subi	r28, 0x75	; 117
    2ae4:	df 4f       	sbci	r29, 0xFF	; 255
    2ae6:	98 83       	st	Y, r25
    2ae8:	cb 58       	subi	r28, 0x8B	; 139
    2aea:	d0 40       	sbci	r29, 0x00	; 0
    2aec:	2d ed       	ldi	r18, 0xDD	; 221
    2aee:	3a e4       	ldi	r19, 0x4A	; 74
    2af0:	ce 57       	subi	r28, 0x7E	; 126
    2af2:	df 4f       	sbci	r29, 0xFF	; 255
    2af4:	e8 81       	ld	r30, Y
    2af6:	f9 81       	ldd	r31, Y+1	; 0x01
    2af8:	c2 58       	subi	r28, 0x82	; 130
    2afa:	d0 40       	sbci	r29, 0x00	; 0
    2afc:	2e 17       	cp	r18, r30
    2afe:	3f 07       	cpc	r19, r31
    2b00:	09 f0       	breq	.+2      	; 0x2b04 <Read_GPS+0x816>
    2b02:	5e cf       	rjmp	.-324    	; 0x29c0 <Read_GPS+0x6d2>
    2b04:	93 01       	movw	r18, r6
    2b06:	02 e0       	ldi	r16, 0x02	; 2
    2b08:	0e 94 97 23 	call	0x472e	; 0x472e <__ashrdi3>
    2b0c:	39 01       	movw	r6, r18
    2b0e:	4a 01       	movw	r8, r20
    2b10:	c1 01       	movw	r24, r2
    2b12:	80 5c       	subi	r24, 0xC0	; 192
    2b14:	9f 4f       	sbci	r25, 0xFF	; 255
    2b16:	fc 01       	movw	r30, r24
    2b18:	60 82       	st	Z, r6
    2b1a:	71 82       	std	Z+1, r7	; 0x01
    2b1c:	82 82       	std	Z+2, r8	; 0x02
    2b1e:	93 82       	std	Z+3, r9	; 0x03
    2b20:	2b 2f       	mov	r18, r27
    2b22:	3a 2f       	mov	r19, r26
    2b24:	c2 57       	subi	r28, 0x72	; 114
    2b26:	df 4f       	sbci	r29, 0xFF	; 255
    2b28:	48 81       	ld	r20, Y
    2b2a:	ce 58       	subi	r28, 0x8E	; 142
    2b2c:	d0 40       	sbci	r29, 0x00	; 0
    2b2e:	c1 57       	subi	r28, 0x71	; 113
    2b30:	df 4f       	sbci	r29, 0xFF	; 255
    2b32:	58 81       	ld	r21, Y
    2b34:	cf 58       	subi	r28, 0x8F	; 143
    2b36:	d0 40       	sbci	r29, 0x00	; 0
    2b38:	ca 57       	subi	r28, 0x7A	; 122
    2b3a:	df 4f       	sbci	r29, 0xFF	; 255
    2b3c:	68 81       	ld	r22, Y
    2b3e:	c6 58       	subi	r28, 0x86	; 134
    2b40:	d0 40       	sbci	r29, 0x00	; 0
    2b42:	c9 57       	subi	r28, 0x79	; 121
    2b44:	df 4f       	sbci	r29, 0xFF	; 255
    2b46:	78 81       	ld	r23, Y
    2b48:	c7 58       	subi	r28, 0x87	; 135
    2b4a:	d0 40       	sbci	r29, 0x00	; 0
    2b4c:	c2 01       	movw	r24, r4
    2b4e:	0e 94 97 23 	call	0x472e	; 0x472e <__ashrdi3>
    2b52:	b9 01       	movw	r22, r18
    2b54:	ca 01       	movw	r24, r20
    2b56:	34 96       	adiw	r30, 0x04	; 4
    2b58:	20 83       	st	Z, r18
    2b5a:	71 83       	std	Z+1, r23	; 0x01
    2b5c:	42 83       	std	Z+2, r20	; 0x02
    2b5e:	93 83       	std	Z+3, r25	; 0x03
    2b60:	61 01       	movw	r12, r2
    2b62:	f4 e3       	ldi	r31, 0x34	; 52
    2b64:	cf 0e       	add	r12, r31
    2b66:	d1 1c       	adc	r13, r1
    2b68:	d1 01       	movw	r26, r2
    2b6a:	d0 96       	adiw	r26, 0x30	; 48
    2b6c:	ed 90       	ld	r14, X+
    2b6e:	fd 90       	ld	r15, X+
    2b70:	0d 91       	ld	r16, X+
    2b72:	1c 91       	ld	r17, X
    2b74:	d3 97       	sbiw	r26, 0x33	; 51
    2b76:	93 01       	movw	r18, r6
    2b78:	a4 01       	movw	r20, r8
    2b7a:	0e 94 b8 0f 	call	0x1f70	; 0x1f70 <LLA_to_NED>
    2b7e:	c1 57       	subi	r28, 0x71	; 113
    2b80:	df 4f       	sbci	r29, 0xFF	; 255
    2b82:	cd bf       	out	0x3d, r28	; 61
    2b84:	de bf       	out	0x3e, r29	; 62
    2b86:	df 91       	pop	r29
    2b88:	cf 91       	pop	r28
    2b8a:	1f 91       	pop	r17
    2b8c:	0f 91       	pop	r16
    2b8e:	ff 90       	pop	r15
    2b90:	ef 90       	pop	r14
    2b92:	df 90       	pop	r13
    2b94:	cf 90       	pop	r12
    2b96:	bf 90       	pop	r11
    2b98:	af 90       	pop	r10
    2b9a:	9f 90       	pop	r9
    2b9c:	8f 90       	pop	r8
    2b9e:	7f 90       	pop	r7
    2ba0:	6f 90       	pop	r6
    2ba2:	5f 90       	pop	r5
    2ba4:	4f 90       	pop	r4
    2ba6:	3f 90       	pop	r3
    2ba8:	2f 90       	pop	r2
    2baa:	08 95       	ret

00002bac <USART_Transmit>:
    2bac:	28 2f       	mov	r18, r24
    2bae:	fc 01       	movw	r30, r24
    2bb0:	90 e4       	ldi	r25, 0x40	; 64
    2bb2:	8e 2f       	mov	r24, r30
    2bb4:	82 1b       	sub	r24, r18
    2bb6:	86 17       	cp	r24, r22
    2bb8:	50 f4       	brcc	.+20     	; 0x2bce <USART_Transmit+0x22>
    2bba:	81 91       	ld	r24, Z+
    2bbc:	80 93 62 08 	sts	0x0862, r24	; 0x800862 <__TEXT_REGION_LENGTH__+0x7e0862>
    2bc0:	80 91 64 08 	lds	r24, 0x0864	; 0x800864 <__TEXT_REGION_LENGTH__+0x7e0864>
    2bc4:	86 ff       	sbrs	r24, 6
    2bc6:	fc cf       	rjmp	.-8      	; 0x2bc0 <USART_Transmit+0x14>
    2bc8:	90 93 64 08 	sts	0x0864, r25	; 0x800864 <__TEXT_REGION_LENGTH__+0x7e0864>
    2bcc:	f2 cf       	rjmp	.-28     	; 0x2bb2 <USART_Transmit+0x6>
    2bce:	28 ee       	ldi	r18, 0xE8	; 232
    2bd0:	33 e0       	ldi	r19, 0x03	; 3
    2bd2:	40 e0       	ldi	r20, 0x00	; 0
    2bd4:	50 e0       	ldi	r21, 0x00	; 0
    2bd6:	60 e0       	ldi	r22, 0x00	; 0
    2bd8:	70 e0       	ldi	r23, 0x00	; 0
    2bda:	80 e0       	ldi	r24, 0x00	; 0
    2bdc:	90 e0       	ldi	r25, 0x00	; 0
    2bde:	0c 94 cb 09 	jmp	0x1396	; 0x1396 <Delay>

00002be2 <Setup_GPS>:
    2be2:	cf 93       	push	r28
    2be4:	df 93       	push	r29
    2be6:	cd b7       	in	r28, 0x3d	; 61
    2be8:	de b7       	in	r29, 0x3e	; 62
    2bea:	c2 57       	subi	r28, 0x72	; 114
    2bec:	d1 40       	sbci	r29, 0x01	; 1
    2bee:	cd bf       	out	0x3d, r28	; 61
    2bf0:	de bf       	out	0x3e, r29	; 62
    2bf2:	84 ec       	ldi	r24, 0xC4	; 196
    2bf4:	99 e0       	ldi	r25, 0x09	; 9
    2bf6:	80 93 68 08 	sts	0x0868, r24	; 0x800868 <__TEXT_REGION_LENGTH__+0x7e0868>
    2bfa:	90 93 69 08 	sts	0x0869, r25	; 0x800869 <__TEXT_REGION_LENGTH__+0x7e0869>
    2bfe:	80 91 20 04 	lds	r24, 0x0420	; 0x800420 <__TEXT_REGION_LENGTH__+0x7e0420>
    2c02:	81 60       	ori	r24, 0x01	; 1
    2c04:	80 93 20 04 	sts	0x0420, r24	; 0x800420 <__TEXT_REGION_LENGTH__+0x7e0420>
    2c08:	80 91 65 08 	lds	r24, 0x0865	; 0x800865 <__TEXT_REGION_LENGTH__+0x7e0865>
    2c0c:	80 68       	ori	r24, 0x80	; 128
    2c0e:	80 93 65 08 	sts	0x0865, r24	; 0x800865 <__TEXT_REGION_LENGTH__+0x7e0865>
    2c12:	80 91 66 08 	lds	r24, 0x0866	; 0x800866 <__TEXT_REGION_LENGTH__+0x7e0866>
    2c16:	80 6c       	ori	r24, 0xC0	; 192
    2c18:	80 93 66 08 	sts	0x0866, r24	; 0x800866 <__TEXT_REGION_LENGTH__+0x7e0866>
    2c1c:	2a e0       	ldi	r18, 0x0A	; 10
    2c1e:	30 e0       	ldi	r19, 0x00	; 0
    2c20:	40 e0       	ldi	r20, 0x00	; 0
    2c22:	50 e0       	ldi	r21, 0x00	; 0
    2c24:	60 e0       	ldi	r22, 0x00	; 0
    2c26:	70 e0       	ldi	r23, 0x00	; 0
    2c28:	80 e0       	ldi	r24, 0x00	; 0
    2c2a:	90 e0       	ldi	r25, 0x00	; 0
    2c2c:	0e 94 cb 09 	call	0x1396	; 0x1396 <Delay>
    2c30:	80 91 61 08 	lds	r24, 0x0861	; 0x800861 <__TEXT_REGION_LENGTH__+0x7e0861>
    2c34:	82 ff       	sbrs	r24, 2
    2c36:	0a c0       	rjmp	.+20     	; 0x2c4c <Setup_GPS+0x6a>
    2c38:	80 ed       	ldi	r24, 0xD0	; 208
    2c3a:	90 e0       	ldi	r25, 0x00	; 0
    2c3c:	80 93 68 08 	sts	0x0868, r24	; 0x800868 <__TEXT_REGION_LENGTH__+0x7e0868>
    2c40:	90 93 69 08 	sts	0x0869, r25	; 0x800869 <__TEXT_REGION_LENGTH__+0x7e0869>
    2c44:	84 e0       	ldi	r24, 0x04	; 4
    2c46:	80 93 61 08 	sts	0x0861, r24	; 0x800861 <__TEXT_REGION_LENGTH__+0x7e0861>
    2c4a:	14 c0       	rjmp	.+40     	; 0x2c74 <Setup_GPS+0x92>
    2c4c:	8c e1       	ldi	r24, 0x1C	; 28
    2c4e:	e4 e8       	ldi	r30, 0x84	; 132
    2c50:	f0 e4       	ldi	r31, 0x40	; 64
    2c52:	de 01       	movw	r26, r28
    2c54:	11 96       	adiw	r26, 0x01	; 1
    2c56:	01 90       	ld	r0, Z+
    2c58:	0d 92       	st	X+, r0
    2c5a:	8a 95       	dec	r24
    2c5c:	e1 f7       	brne	.-8      	; 0x2c56 <Setup_GPS+0x74>
    2c5e:	6c e1       	ldi	r22, 0x1C	; 28
    2c60:	ce 01       	movw	r24, r28
    2c62:	01 96       	adiw	r24, 0x01	; 1
    2c64:	0e 94 d6 15 	call	0x2bac	; 0x2bac <USART_Transmit>
    2c68:	80 ed       	ldi	r24, 0xD0	; 208
    2c6a:	90 e0       	ldi	r25, 0x00	; 0
    2c6c:	80 93 68 08 	sts	0x0868, r24	; 0x800868 <__TEXT_REGION_LENGTH__+0x7e0868>
    2c70:	90 93 69 08 	sts	0x0869, r25	; 0x800869 <__TEXT_REGION_LENGTH__+0x7e0869>
    2c74:	20 ea       	ldi	r18, 0xA0	; 160
    2c76:	36 e8       	ldi	r19, 0x86	; 134
    2c78:	41 e0       	ldi	r20, 0x01	; 1
    2c7a:	50 e0       	ldi	r21, 0x00	; 0
    2c7c:	60 e0       	ldi	r22, 0x00	; 0
    2c7e:	70 e0       	ldi	r23, 0x00	; 0
    2c80:	80 e0       	ldi	r24, 0x00	; 0
    2c82:	90 e0       	ldi	r25, 0x00	; 0
    2c84:	0e 94 cb 09 	call	0x1396	; 0x1396 <Delay>
    2c88:	80 e1       	ldi	r24, 0x10	; 16
    2c8a:	e0 ea       	ldi	r30, 0xA0	; 160
    2c8c:	f0 e4       	ldi	r31, 0x40	; 64
    2c8e:	de 01       	movw	r26, r28
    2c90:	a3 5e       	subi	r26, 0xE3	; 227
    2c92:	be 4f       	sbci	r27, 0xFE	; 254
    2c94:	01 90       	ld	r0, Z+
    2c96:	0d 92       	st	X+, r0
    2c98:	8a 95       	dec	r24
    2c9a:	e1 f7       	brne	.-8      	; 0x2c94 <Setup_GPS+0xb2>
    2c9c:	60 e1       	ldi	r22, 0x10	; 16
    2c9e:	ce 01       	movw	r24, r28
    2ca0:	83 5e       	subi	r24, 0xE3	; 227
    2ca2:	9e 4f       	sbci	r25, 0xFE	; 254
    2ca4:	0e 94 d6 15 	call	0x2bac	; 0x2bac <USART_Transmit>
    2ca8:	80 e1       	ldi	r24, 0x10	; 16
    2caa:	e0 eb       	ldi	r30, 0xB0	; 176
    2cac:	f0 e4       	ldi	r31, 0x40	; 64
    2cae:	de 01       	movw	r26, r28
    2cb0:	a3 5f       	subi	r26, 0xF3	; 243
    2cb2:	be 4f       	sbci	r27, 0xFE	; 254
    2cb4:	01 90       	ld	r0, Z+
    2cb6:	0d 92       	st	X+, r0
    2cb8:	8a 95       	dec	r24
    2cba:	e1 f7       	brne	.-8      	; 0x2cb4 <Setup_GPS+0xd2>
    2cbc:	60 e1       	ldi	r22, 0x10	; 16
    2cbe:	ce 01       	movw	r24, r28
    2cc0:	83 5f       	subi	r24, 0xF3	; 243
    2cc2:	9e 4f       	sbci	r25, 0xFE	; 254
    2cc4:	0e 94 d6 15 	call	0x2bac	; 0x2bac <USART_Transmit>
    2cc8:	80 e1       	ldi	r24, 0x10	; 16
    2cca:	e0 ec       	ldi	r30, 0xC0	; 192
    2ccc:	f0 e4       	ldi	r31, 0x40	; 64
    2cce:	de 01       	movw	r26, r28
    2cd0:	a3 50       	subi	r26, 0x03	; 3
    2cd2:	bf 4f       	sbci	r27, 0xFF	; 255
    2cd4:	01 90       	ld	r0, Z+
    2cd6:	0d 92       	st	X+, r0
    2cd8:	8a 95       	dec	r24
    2cda:	e1 f7       	brne	.-8      	; 0x2cd4 <Setup_GPS+0xf2>
    2cdc:	60 e1       	ldi	r22, 0x10	; 16
    2cde:	ce 01       	movw	r24, r28
    2ce0:	83 50       	subi	r24, 0x03	; 3
    2ce2:	9f 4f       	sbci	r25, 0xFF	; 255
    2ce4:	0e 94 d6 15 	call	0x2bac	; 0x2bac <USART_Transmit>
    2ce8:	80 e1       	ldi	r24, 0x10	; 16
    2cea:	e0 ed       	ldi	r30, 0xD0	; 208
    2cec:	f0 e4       	ldi	r31, 0x40	; 64
    2cee:	de 01       	movw	r26, r28
    2cf0:	a3 51       	subi	r26, 0x13	; 19
    2cf2:	bf 4f       	sbci	r27, 0xFF	; 255
    2cf4:	01 90       	ld	r0, Z+
    2cf6:	0d 92       	st	X+, r0
    2cf8:	8a 95       	dec	r24
    2cfa:	e1 f7       	brne	.-8      	; 0x2cf4 <Setup_GPS+0x112>
    2cfc:	60 e1       	ldi	r22, 0x10	; 16
    2cfe:	ce 01       	movw	r24, r28
    2d00:	83 51       	subi	r24, 0x13	; 19
    2d02:	9f 4f       	sbci	r25, 0xFF	; 255
    2d04:	0e 94 d6 15 	call	0x2bac	; 0x2bac <USART_Transmit>
    2d08:	80 e1       	ldi	r24, 0x10	; 16
    2d0a:	e0 ee       	ldi	r30, 0xE0	; 224
    2d0c:	f0 e4       	ldi	r31, 0x40	; 64
    2d0e:	de 01       	movw	r26, r28
    2d10:	a3 52       	subi	r26, 0x23	; 35
    2d12:	bf 4f       	sbci	r27, 0xFF	; 255
    2d14:	01 90       	ld	r0, Z+
    2d16:	0d 92       	st	X+, r0
    2d18:	8a 95       	dec	r24
    2d1a:	e1 f7       	brne	.-8      	; 0x2d14 <Setup_GPS+0x132>
    2d1c:	60 e1       	ldi	r22, 0x10	; 16
    2d1e:	ce 01       	movw	r24, r28
    2d20:	83 52       	subi	r24, 0x23	; 35
    2d22:	9f 4f       	sbci	r25, 0xFF	; 255
    2d24:	0e 94 d6 15 	call	0x2bac	; 0x2bac <USART_Transmit>
    2d28:	80 e1       	ldi	r24, 0x10	; 16
    2d2a:	e0 ef       	ldi	r30, 0xF0	; 240
    2d2c:	f0 e4       	ldi	r31, 0x40	; 64
    2d2e:	de 01       	movw	r26, r28
    2d30:	a3 53       	subi	r26, 0x33	; 51
    2d32:	bf 4f       	sbci	r27, 0xFF	; 255
    2d34:	01 90       	ld	r0, Z+
    2d36:	0d 92       	st	X+, r0
    2d38:	8a 95       	dec	r24
    2d3a:	e1 f7       	brne	.-8      	; 0x2d34 <Setup_GPS+0x152>
    2d3c:	60 e1       	ldi	r22, 0x10	; 16
    2d3e:	ce 01       	movw	r24, r28
    2d40:	83 53       	subi	r24, 0x33	; 51
    2d42:	9f 4f       	sbci	r25, 0xFF	; 255
    2d44:	0e 94 d6 15 	call	0x2bac	; 0x2bac <USART_Transmit>
    2d48:	80 e1       	ldi	r24, 0x10	; 16
    2d4a:	e0 e0       	ldi	r30, 0x00	; 0
    2d4c:	f1 e4       	ldi	r31, 0x41	; 65
    2d4e:	de 01       	movw	r26, r28
    2d50:	a3 54       	subi	r26, 0x43	; 67
    2d52:	bf 4f       	sbci	r27, 0xFF	; 255
    2d54:	01 90       	ld	r0, Z+
    2d56:	0d 92       	st	X+, r0
    2d58:	8a 95       	dec	r24
    2d5a:	e1 f7       	brne	.-8      	; 0x2d54 <Setup_GPS+0x172>
    2d5c:	60 e1       	ldi	r22, 0x10	; 16
    2d5e:	ce 01       	movw	r24, r28
    2d60:	83 54       	subi	r24, 0x43	; 67
    2d62:	9f 4f       	sbci	r25, 0xFF	; 255
    2d64:	0e 94 d6 15 	call	0x2bac	; 0x2bac <USART_Transmit>
    2d68:	80 e1       	ldi	r24, 0x10	; 16
    2d6a:	e0 e1       	ldi	r30, 0x10	; 16
    2d6c:	f1 e4       	ldi	r31, 0x41	; 65
    2d6e:	de 01       	movw	r26, r28
    2d70:	a3 55       	subi	r26, 0x53	; 83
    2d72:	bf 4f       	sbci	r27, 0xFF	; 255
    2d74:	01 90       	ld	r0, Z+
    2d76:	0d 92       	st	X+, r0
    2d78:	8a 95       	dec	r24
    2d7a:	e1 f7       	brne	.-8      	; 0x2d74 <Setup_GPS+0x192>
    2d7c:	60 e1       	ldi	r22, 0x10	; 16
    2d7e:	ce 01       	movw	r24, r28
    2d80:	83 55       	subi	r24, 0x53	; 83
    2d82:	9f 4f       	sbci	r25, 0xFF	; 255
    2d84:	0e 94 d6 15 	call	0x2bac	; 0x2bac <USART_Transmit>
    2d88:	80 e1       	ldi	r24, 0x10	; 16
    2d8a:	e0 e2       	ldi	r30, 0x20	; 32
    2d8c:	f1 e4       	ldi	r31, 0x41	; 65
    2d8e:	de 01       	movw	r26, r28
    2d90:	a3 56       	subi	r26, 0x63	; 99
    2d92:	bf 4f       	sbci	r27, 0xFF	; 255
    2d94:	01 90       	ld	r0, Z+
    2d96:	0d 92       	st	X+, r0
    2d98:	8a 95       	dec	r24
    2d9a:	e1 f7       	brne	.-8      	; 0x2d94 <Setup_GPS+0x1b2>
    2d9c:	60 e1       	ldi	r22, 0x10	; 16
    2d9e:	ce 01       	movw	r24, r28
    2da0:	83 56       	subi	r24, 0x63	; 99
    2da2:	9f 4f       	sbci	r25, 0xFF	; 255
    2da4:	0e 94 d6 15 	call	0x2bac	; 0x2bac <USART_Transmit>
    2da8:	80 e1       	ldi	r24, 0x10	; 16
    2daa:	e0 e3       	ldi	r30, 0x30	; 48
    2dac:	f1 e4       	ldi	r31, 0x41	; 65
    2dae:	de 01       	movw	r26, r28
    2db0:	a3 57       	subi	r26, 0x73	; 115
    2db2:	bf 4f       	sbci	r27, 0xFF	; 255
    2db4:	01 90       	ld	r0, Z+
    2db6:	0d 92       	st	X+, r0
    2db8:	8a 95       	dec	r24
    2dba:	e1 f7       	brne	.-8      	; 0x2db4 <Setup_GPS+0x1d2>
    2dbc:	60 e1       	ldi	r22, 0x10	; 16
    2dbe:	ce 01       	movw	r24, r28
    2dc0:	83 57       	subi	r24, 0x73	; 115
    2dc2:	9f 4f       	sbci	r25, 0xFF	; 255
    2dc4:	0e 94 d6 15 	call	0x2bac	; 0x2bac <USART_Transmit>
    2dc8:	80 e1       	ldi	r24, 0x10	; 16
    2dca:	e0 e4       	ldi	r30, 0x40	; 64
    2dcc:	f1 e4       	ldi	r31, 0x41	; 65
    2dce:	de 01       	movw	r26, r28
    2dd0:	a3 58       	subi	r26, 0x83	; 131
    2dd2:	bf 4f       	sbci	r27, 0xFF	; 255
    2dd4:	01 90       	ld	r0, Z+
    2dd6:	0d 92       	st	X+, r0
    2dd8:	8a 95       	dec	r24
    2dda:	e1 f7       	brne	.-8      	; 0x2dd4 <Setup_GPS+0x1f2>
    2ddc:	60 e1       	ldi	r22, 0x10	; 16
    2dde:	ce 01       	movw	r24, r28
    2de0:	83 58       	subi	r24, 0x83	; 131
    2de2:	9f 4f       	sbci	r25, 0xFF	; 255
    2de4:	0e 94 d6 15 	call	0x2bac	; 0x2bac <USART_Transmit>
    2de8:	80 e1       	ldi	r24, 0x10	; 16
    2dea:	e0 e5       	ldi	r30, 0x50	; 80
    2dec:	f1 e4       	ldi	r31, 0x41	; 65
    2dee:	de 01       	movw	r26, r28
    2df0:	a3 59       	subi	r26, 0x93	; 147
    2df2:	bf 4f       	sbci	r27, 0xFF	; 255
    2df4:	01 90       	ld	r0, Z+
    2df6:	0d 92       	st	X+, r0
    2df8:	8a 95       	dec	r24
    2dfa:	e1 f7       	brne	.-8      	; 0x2df4 <Setup_GPS+0x212>
    2dfc:	60 e1       	ldi	r22, 0x10	; 16
    2dfe:	ce 01       	movw	r24, r28
    2e00:	83 59       	subi	r24, 0x93	; 147
    2e02:	9f 4f       	sbci	r25, 0xFF	; 255
    2e04:	0e 94 d6 15 	call	0x2bac	; 0x2bac <USART_Transmit>
    2e08:	80 e1       	ldi	r24, 0x10	; 16
    2e0a:	e0 e6       	ldi	r30, 0x60	; 96
    2e0c:	f1 e4       	ldi	r31, 0x41	; 65
    2e0e:	de 01       	movw	r26, r28
    2e10:	a3 5a       	subi	r26, 0xA3	; 163
    2e12:	bf 4f       	sbci	r27, 0xFF	; 255
    2e14:	01 90       	ld	r0, Z+
    2e16:	0d 92       	st	X+, r0
    2e18:	8a 95       	dec	r24
    2e1a:	e1 f7       	brne	.-8      	; 0x2e14 <Setup_GPS+0x232>
    2e1c:	60 e1       	ldi	r22, 0x10	; 16
    2e1e:	ce 01       	movw	r24, r28
    2e20:	83 5a       	subi	r24, 0xA3	; 163
    2e22:	9f 4f       	sbci	r25, 0xFF	; 255
    2e24:	0e 94 d6 15 	call	0x2bac	; 0x2bac <USART_Transmit>
    2e28:	80 e1       	ldi	r24, 0x10	; 16
    2e2a:	e0 e7       	ldi	r30, 0x70	; 112
    2e2c:	f1 e4       	ldi	r31, 0x41	; 65
    2e2e:	de 01       	movw	r26, r28
    2e30:	a3 5b       	subi	r26, 0xB3	; 179
    2e32:	bf 4f       	sbci	r27, 0xFF	; 255
    2e34:	01 90       	ld	r0, Z+
    2e36:	0d 92       	st	X+, r0
    2e38:	8a 95       	dec	r24
    2e3a:	e1 f7       	brne	.-8      	; 0x2e34 <Setup_GPS+0x252>
    2e3c:	60 e1       	ldi	r22, 0x10	; 16
    2e3e:	ce 01       	movw	r24, r28
    2e40:	83 5b       	subi	r24, 0xB3	; 179
    2e42:	9f 4f       	sbci	r25, 0xFF	; 255
    2e44:	0e 94 d6 15 	call	0x2bac	; 0x2bac <USART_Transmit>
    2e48:	80 e1       	ldi	r24, 0x10	; 16
    2e4a:	e0 e8       	ldi	r30, 0x80	; 128
    2e4c:	f1 e4       	ldi	r31, 0x41	; 65
    2e4e:	de 01       	movw	r26, r28
    2e50:	dd 96       	adiw	r26, 0x3d	; 61
    2e52:	01 90       	ld	r0, Z+
    2e54:	0d 92       	st	X+, r0
    2e56:	8a 95       	dec	r24
    2e58:	e1 f7       	brne	.-8      	; 0x2e52 <Setup_GPS+0x270>
    2e5a:	60 e1       	ldi	r22, 0x10	; 16
    2e5c:	ce 01       	movw	r24, r28
    2e5e:	cd 96       	adiw	r24, 0x3d	; 61
    2e60:	0e 94 d6 15 	call	0x2bac	; 0x2bac <USART_Transmit>
    2e64:	80 e1       	ldi	r24, 0x10	; 16
    2e66:	e0 e9       	ldi	r30, 0x90	; 144
    2e68:	f1 e4       	ldi	r31, 0x41	; 65
    2e6a:	de 01       	movw	r26, r28
    2e6c:	9d 96       	adiw	r26, 0x2d	; 45
    2e6e:	01 90       	ld	r0, Z+
    2e70:	0d 92       	st	X+, r0
    2e72:	8a 95       	dec	r24
    2e74:	e1 f7       	brne	.-8      	; 0x2e6e <Setup_GPS+0x28c>
    2e76:	60 e1       	ldi	r22, 0x10	; 16
    2e78:	ce 01       	movw	r24, r28
    2e7a:	8d 96       	adiw	r24, 0x2d	; 45
    2e7c:	0e 94 d6 15 	call	0x2bac	; 0x2bac <USART_Transmit>
    2e80:	80 e1       	ldi	r24, 0x10	; 16
    2e82:	e0 ea       	ldi	r30, 0xA0	; 160
    2e84:	f1 e4       	ldi	r31, 0x41	; 65
    2e86:	de 01       	movw	r26, r28
    2e88:	5d 96       	adiw	r26, 0x1d	; 29
    2e8a:	01 90       	ld	r0, Z+
    2e8c:	0d 92       	st	X+, r0
    2e8e:	8a 95       	dec	r24
    2e90:	e1 f7       	brne	.-8      	; 0x2e8a <Setup_GPS+0x2a8>
    2e92:	60 e1       	ldi	r22, 0x10	; 16
    2e94:	ce 01       	movw	r24, r28
    2e96:	4d 96       	adiw	r24, 0x1d	; 29
    2e98:	0e 94 d6 15 	call	0x2bac	; 0x2bac <USART_Transmit>
    2e9c:	80 e1       	ldi	r24, 0x10	; 16
    2e9e:	e0 eb       	ldi	r30, 0xB0	; 176
    2ea0:	f1 e4       	ldi	r31, 0x41	; 65
    2ea2:	de 01       	movw	r26, r28
    2ea4:	11 96       	adiw	r26, 0x01	; 1
    2ea6:	01 90       	ld	r0, Z+
    2ea8:	0d 92       	st	X+, r0
    2eaa:	8a 95       	dec	r24
    2eac:	e1 f7       	brne	.-8      	; 0x2ea6 <Setup_GPS+0x2c4>
    2eae:	60 e1       	ldi	r22, 0x10	; 16
    2eb0:	ce 01       	movw	r24, r28
    2eb2:	01 96       	adiw	r24, 0x01	; 1
    2eb4:	0e 94 d6 15 	call	0x2bac	; 0x2bac <USART_Transmit>
    2eb8:	8e e0       	ldi	r24, 0x0E	; 14
    2eba:	e0 ec       	ldi	r30, 0xC0	; 192
    2ebc:	f1 e4       	ldi	r31, 0x41	; 65
    2ebe:	de 01       	movw	r26, r28
    2ec0:	ab 59       	subi	r26, 0x9B	; 155
    2ec2:	be 4f       	sbci	r27, 0xFE	; 254
    2ec4:	01 90       	ld	r0, Z+
    2ec6:	0d 92       	st	X+, r0
    2ec8:	8a 95       	dec	r24
    2eca:	e1 f7       	brne	.-8      	; 0x2ec4 <Setup_GPS+0x2e2>
    2ecc:	6e e0       	ldi	r22, 0x0E	; 14
    2ece:	ce 01       	movw	r24, r28
    2ed0:	8b 59       	subi	r24, 0x9B	; 155
    2ed2:	9e 4f       	sbci	r25, 0xFE	; 254
    2ed4:	0e 94 d6 15 	call	0x2bac	; 0x2bac <USART_Transmit>
    2ed8:	8e e0       	ldi	r24, 0x0E	; 14
    2eda:	ee ec       	ldi	r30, 0xCE	; 206
    2edc:	f1 e4       	ldi	r31, 0x41	; 65
    2ede:	de 01       	movw	r26, r28
    2ee0:	a9 5a       	subi	r26, 0xA9	; 169
    2ee2:	be 4f       	sbci	r27, 0xFE	; 254
    2ee4:	01 90       	ld	r0, Z+
    2ee6:	0d 92       	st	X+, r0
    2ee8:	8a 95       	dec	r24
    2eea:	e1 f7       	brne	.-8      	; 0x2ee4 <Setup_GPS+0x302>
    2eec:	6e e0       	ldi	r22, 0x0E	; 14
    2eee:	ce 01       	movw	r24, r28
    2ef0:	89 5a       	subi	r24, 0xA9	; 169
    2ef2:	9e 4f       	sbci	r25, 0xFE	; 254
    2ef4:	0e 94 d6 15 	call	0x2bac	; 0x2bac <USART_Transmit>
    2ef8:	8e e0       	ldi	r24, 0x0E	; 14
    2efa:	ec ed       	ldi	r30, 0xDC	; 220
    2efc:	f1 e4       	ldi	r31, 0x41	; 65
    2efe:	de 01       	movw	r26, r28
    2f00:	a7 5b       	subi	r26, 0xB7	; 183
    2f02:	be 4f       	sbci	r27, 0xFE	; 254
    2f04:	01 90       	ld	r0, Z+
    2f06:	0d 92       	st	X+, r0
    2f08:	8a 95       	dec	r24
    2f0a:	e1 f7       	brne	.-8      	; 0x2f04 <Setup_GPS+0x322>
    2f0c:	6e e0       	ldi	r22, 0x0E	; 14
    2f0e:	ce 01       	movw	r24, r28
    2f10:	87 5b       	subi	r24, 0xB7	; 183
    2f12:	9e 4f       	sbci	r25, 0xFE	; 254
    2f14:	0e 94 d6 15 	call	0x2bac	; 0x2bac <USART_Transmit>
    2f18:	8e e0       	ldi	r24, 0x0E	; 14
    2f1a:	ea ee       	ldi	r30, 0xEA	; 234
    2f1c:	f1 e4       	ldi	r31, 0x41	; 65
    2f1e:	de 01       	movw	r26, r28
    2f20:	a5 5c       	subi	r26, 0xC5	; 197
    2f22:	be 4f       	sbci	r27, 0xFE	; 254
    2f24:	01 90       	ld	r0, Z+
    2f26:	0d 92       	st	X+, r0
    2f28:	8a 95       	dec	r24
    2f2a:	e1 f7       	brne	.-8      	; 0x2f24 <Setup_GPS+0x342>
    2f2c:	6e e0       	ldi	r22, 0x0E	; 14
    2f2e:	ce 01       	movw	r24, r28
    2f30:	85 5c       	subi	r24, 0xC5	; 197
    2f32:	9e 4f       	sbci	r25, 0xFE	; 254
    2f34:	0e 94 d6 15 	call	0x2bac	; 0x2bac <USART_Transmit>
    2f38:	8e e0       	ldi	r24, 0x0E	; 14
    2f3a:	e8 ef       	ldi	r30, 0xF8	; 248
    2f3c:	f1 e4       	ldi	r31, 0x41	; 65
    2f3e:	de 01       	movw	r26, r28
    2f40:	a3 5d       	subi	r26, 0xD3	; 211
    2f42:	be 4f       	sbci	r27, 0xFE	; 254
    2f44:	01 90       	ld	r0, Z+
    2f46:	0d 92       	st	X+, r0
    2f48:	8a 95       	dec	r24
    2f4a:	e1 f7       	brne	.-8      	; 0x2f44 <Setup_GPS+0x362>
    2f4c:	6e e0       	ldi	r22, 0x0E	; 14
    2f4e:	ce 01       	movw	r24, r28
    2f50:	83 5d       	subi	r24, 0xD3	; 211
    2f52:	9e 4f       	sbci	r25, 0xFE	; 254
    2f54:	0e 94 d6 15 	call	0x2bac	; 0x2bac <USART_Transmit>
    2f58:	80 91 61 08 	lds	r24, 0x0861	; 0x800861 <__TEXT_REGION_LENGTH__+0x7e0861>
    2f5c:	82 fb       	bst	r24, 2
    2f5e:	88 27       	eor	r24, r24
    2f60:	80 f9       	bld	r24, 0
    2f62:	91 e0       	ldi	r25, 0x01	; 1
    2f64:	89 27       	eor	r24, r25
    2f66:	ce 58       	subi	r28, 0x8E	; 142
    2f68:	de 4f       	sbci	r29, 0xFE	; 254
    2f6a:	cd bf       	out	0x3d, r28	; 61
    2f6c:	de bf       	out	0x3e, r29	; 62
    2f6e:	df 91       	pop	r29
    2f70:	cf 91       	pop	r28
    2f72:	08 95       	ret

00002f74 <__vector_53>:
    2f74:	1f 92       	push	r1
    2f76:	0f 92       	push	r0
    2f78:	0f b6       	in	r0, 0x3f	; 63
    2f7a:	0f 92       	push	r0
    2f7c:	11 24       	eor	r1, r1
    2f7e:	0b b6       	in	r0, 0x3b	; 59
    2f80:	0f 92       	push	r0
    2f82:	2f 93       	push	r18
    2f84:	8f 93       	push	r24
    2f86:	9f 93       	push	r25
    2f88:	ef 93       	push	r30
    2f8a:	ff 93       	push	r31
    2f8c:	91 e0       	ldi	r25, 0x01	; 1
    2f8e:	80 91 64 08 	lds	r24, 0x0864	; 0x800864 <__TEXT_REGION_LENGTH__+0x7e0864>
    2f92:	87 ff       	sbrs	r24, 7
    2f94:	11 c0       	rjmp	.+34     	; 0x2fb8 <__vector_53+0x44>
    2f96:	80 91 60 08 	lds	r24, 0x0860	; 0x800860 <__TEXT_REGION_LENGTH__+0x7e0860>
    2f9a:	8a 30       	cpi	r24, 0x0A	; 10
    2f9c:	11 f4       	brne	.+4      	; 0x2fa2 <__vector_53+0x2e>
    2f9e:	90 93 fb 4b 	sts	0x4BFB, r25	; 0x804bfb <g_GPS_Read_Flag>
    2fa2:	e0 91 fc 4b 	lds	r30, 0x4BFC	; 0x804bfc <g_GPS_Data_Index>
    2fa6:	21 e0       	ldi	r18, 0x01	; 1
    2fa8:	2e 0f       	add	r18, r30
    2faa:	20 93 fc 4b 	sts	0x4BFC, r18	; 0x804bfc <g_GPS_Data_Index>
    2fae:	f0 e0       	ldi	r31, 0x00	; 0
    2fb0:	e3 50       	subi	r30, 0x03	; 3
    2fb2:	f4 4b       	sbci	r31, 0xB4	; 180
    2fb4:	80 83       	st	Z, r24
    2fb6:	eb cf       	rjmp	.-42     	; 0x2f8e <__vector_53+0x1a>
    2fb8:	ff 91       	pop	r31
    2fba:	ef 91       	pop	r30
    2fbc:	9f 91       	pop	r25
    2fbe:	8f 91       	pop	r24
    2fc0:	2f 91       	pop	r18
    2fc2:	0f 90       	pop	r0
    2fc4:	0b be       	out	0x3b, r0	; 59
    2fc6:	0f 90       	pop	r0
    2fc8:	0f be       	out	0x3f, r0	; 63
    2fca:	0f 90       	pop	r0
    2fcc:	1f 90       	pop	r1
    2fce:	18 95       	reti

00002fd0 <Observer>:
    2fd0:	2f 92       	push	r2
    2fd2:	3f 92       	push	r3
    2fd4:	4f 92       	push	r4
    2fd6:	5f 92       	push	r5
    2fd8:	6f 92       	push	r6
    2fda:	7f 92       	push	r7
    2fdc:	8f 92       	push	r8
    2fde:	9f 92       	push	r9
    2fe0:	af 92       	push	r10
    2fe2:	bf 92       	push	r11
    2fe4:	cf 92       	push	r12
    2fe6:	df 92       	push	r13
    2fe8:	ef 92       	push	r14
    2fea:	ff 92       	push	r15
    2fec:	0f 93       	push	r16
    2fee:	1f 93       	push	r17
    2ff0:	cf 93       	push	r28
    2ff2:	df 93       	push	r29
    2ff4:	cd b7       	in	r28, 0x3d	; 61
    2ff6:	de b7       	in	r29, 0x3e	; 62
    2ff8:	ad 97       	sbiw	r28, 0x2d	; 45
    2ffa:	cd bf       	out	0x3d, r28	; 61
    2ffc:	de bf       	out	0x3e, r29	; 62
    2ffe:	8c a7       	std	Y+44, r24	; 0x2c
    3000:	9d a7       	std	Y+45, r25	; 0x2d
    3002:	dc 01       	movw	r26, r24
    3004:	54 96       	adiw	r26, 0x14	; 20
    3006:	cd 90       	ld	r12, X+
    3008:	dd 90       	ld	r13, X+
    300a:	ed 90       	ld	r14, X+
    300c:	fc 90       	ld	r15, X
    300e:	57 97       	sbiw	r26, 0x17	; 23
    3010:	50 96       	adiw	r26, 0x10	; 16
    3012:	8d 90       	ld	r8, X+
    3014:	9d 90       	ld	r9, X+
    3016:	ad 90       	ld	r10, X+
    3018:	bc 90       	ld	r11, X
    301a:	53 97       	sbiw	r26, 0x13	; 19
    301c:	a7 01       	movw	r20, r14
    301e:	96 01       	movw	r18, r12
    3020:	c5 01       	movw	r24, r10
    3022:	b4 01       	movw	r22, r8
    3024:	0e 94 43 1b 	call	0x3686	; 0x3686 <atan2>
    3028:	6d 8b       	std	Y+21, r22	; 0x15
    302a:	7e 8b       	std	Y+22, r23	; 0x16
    302c:	8f 8b       	std	Y+23, r24	; 0x17
    302e:	98 8f       	std	Y+24, r25	; 0x18
    3030:	9b 01       	movw	r18, r22
    3032:	ac 01       	movw	r20, r24
    3034:	0e 94 ad 1e 	call	0x3d5a	; 0x3d5a <__unordsf2>
    3038:	ec a5       	ldd	r30, Y+44	; 0x2c
    303a:	fd a5       	ldd	r31, Y+45	; 0x2d
    303c:	f4 a1       	ldd	r31, Z+36	; 0x24
    303e:	fd 87       	std	Y+13, r31	; 0x0d
    3040:	ac a5       	ldd	r26, Y+44	; 0x2c
    3042:	bd a5       	ldd	r27, Y+45	; 0x2d
    3044:	95 96       	adiw	r26, 0x25	; 37
    3046:	bc 91       	ld	r27, X
    3048:	be 87       	std	Y+14, r27	; 0x0e
    304a:	ec a5       	ldd	r30, Y+44	; 0x2c
    304c:	fd a5       	ldd	r31, Y+45	; 0x2d
    304e:	f6 a1       	ldd	r31, Z+38	; 0x26
    3050:	ff 87       	std	Y+15, r31	; 0x0f
    3052:	ac a5       	ldd	r26, Y+44	; 0x2c
    3054:	bd a5       	ldd	r27, Y+45	; 0x2d
    3056:	97 96       	adiw	r26, 0x27	; 39
    3058:	bc 91       	ld	r27, X
    305a:	b8 8b       	std	Y+16, r27	; 0x10
    305c:	88 23       	and	r24, r24
    305e:	39 f0       	breq	.+14     	; 0x306e <Observer+0x9e>
    3060:	ed 85       	ldd	r30, Y+13	; 0x0d
    3062:	ed 8b       	std	Y+21, r30	; 0x15
    3064:	fe 85       	ldd	r31, Y+14	; 0x0e
    3066:	fe 8b       	std	Y+22, r31	; 0x16
    3068:	8f 85       	ldd	r24, Y+15	; 0x0f
    306a:	8f 8b       	std	Y+23, r24	; 0x17
    306c:	b8 8f       	std	Y+24, r27	; 0x18
    306e:	a5 01       	movw	r20, r10
    3070:	94 01       	movw	r18, r8
    3072:	c5 01       	movw	r24, r10
    3074:	b4 01       	movw	r22, r8
    3076:	0e 94 79 1d 	call	0x3af2	; 0x3af2 <__mulsf3>
    307a:	4b 01       	movw	r8, r22
    307c:	5c 01       	movw	r10, r24
    307e:	a7 01       	movw	r20, r14
    3080:	96 01       	movw	r18, r12
    3082:	c7 01       	movw	r24, r14
    3084:	b6 01       	movw	r22, r12
    3086:	0e 94 79 1d 	call	0x3af2	; 0x3af2 <__mulsf3>
    308a:	9b 01       	movw	r18, r22
    308c:	ac 01       	movw	r20, r24
    308e:	c5 01       	movw	r24, r10
    3090:	b4 01       	movw	r22, r8
    3092:	0e 94 c4 1a 	call	0x3588	; 0x3588 <__addsf3>
    3096:	0e 94 44 1e 	call	0x3c88	; 0x3c88 <sqrt>
    309a:	9b 01       	movw	r18, r22
    309c:	ac 01       	movw	r20, r24
    309e:	ec a5       	ldd	r30, Y+44	; 0x2c
    30a0:	fd a5       	ldd	r31, Y+45	; 0x2d
    30a2:	84 85       	ldd	r24, Z+12	; 0x0c
    30a4:	95 85       	ldd	r25, Z+13	; 0x0d
    30a6:	a6 85       	ldd	r26, Z+14	; 0x0e
    30a8:	b7 85       	ldd	r27, Z+15	; 0x0f
    30aa:	bc 01       	movw	r22, r24
    30ac:	cd 01       	movw	r24, r26
    30ae:	90 58       	subi	r25, 0x80	; 128
    30b0:	0e 94 43 1b 	call	0x3686	; 0x3686 <atan2>
    30b4:	69 8f       	std	Y+25, r22	; 0x19
    30b6:	7a 8f       	std	Y+26, r23	; 0x1a
    30b8:	8b 8f       	std	Y+27, r24	; 0x1b
    30ba:	9c 8f       	std	Y+28, r25	; 0x1c
    30bc:	9b 01       	movw	r18, r22
    30be:	ac 01       	movw	r20, r24
    30c0:	0e 94 ad 1e 	call	0x3d5a	; 0x3d5a <__unordsf2>
    30c4:	ac a5       	ldd	r26, Y+44	; 0x2c
    30c6:	bd a5       	ldd	r27, Y+45	; 0x2d
    30c8:	98 96       	adiw	r26, 0x28	; 40
    30ca:	1c 91       	ld	r17, X
    30cc:	98 97       	sbiw	r26, 0x28	; 40
    30ce:	99 96       	adiw	r26, 0x29	; 41
    30d0:	0c 91       	ld	r16, X
    30d2:	99 97       	sbiw	r26, 0x29	; 41
    30d4:	9a 96       	adiw	r26, 0x2a	; 42
    30d6:	3c 90       	ld	r3, X
    30d8:	9a 97       	sbiw	r26, 0x2a	; 42
    30da:	9b 96       	adiw	r26, 0x2b	; 43
    30dc:	2c 90       	ld	r2, X
    30de:	88 23       	and	r24, r24
    30e0:	21 f0       	breq	.+8      	; 0x30ea <Observer+0x11a>
    30e2:	19 8f       	std	Y+25, r17	; 0x19
    30e4:	0a 8f       	std	Y+26, r16	; 0x1a
    30e6:	3b 8e       	std	Y+27, r3	; 0x1b
    30e8:	2c 8e       	std	Y+28, r2	; 0x1c
    30ea:	1c a3       	std	Y+36, r17	; 0x24
    30ec:	0d a3       	std	Y+37, r16	; 0x25
    30ee:	3e a2       	std	Y+38, r3	; 0x26
    30f0:	2f a2       	std	Y+39, r2	; 0x27
    30f2:	61 2f       	mov	r22, r17
    30f4:	70 2f       	mov	r23, r16
    30f6:	83 2d       	mov	r24, r3
    30f8:	92 2d       	mov	r25, r2
    30fa:	0e 94 a7 1b 	call	0x374e	; 0x374e <cos>
    30fe:	6d 8f       	std	Y+29, r22	; 0x1d
    3100:	7e 8f       	std	Y+30, r23	; 0x1e
    3102:	8f 8f       	std	Y+31, r24	; 0x1f
    3104:	98 a3       	std	Y+32, r25	; 0x20
    3106:	bd 85       	ldd	r27, Y+13	; 0x0d
    3108:	b9 8b       	std	Y+17, r27	; 0x11
    310a:	ee 85       	ldd	r30, Y+14	; 0x0e
    310c:	e9 a3       	std	Y+33, r30	; 0x21
    310e:	ff 85       	ldd	r31, Y+15	; 0x0f
    3110:	fa a3       	std	Y+34, r31	; 0x22
    3112:	88 89       	ldd	r24, Y+16	; 0x10
    3114:	8b a3       	std	Y+35, r24	; 0x23
    3116:	6b 2f       	mov	r22, r27
    3118:	7e 2f       	mov	r23, r30
    311a:	8f 2f       	mov	r24, r31
    311c:	98 89       	ldd	r25, Y+16	; 0x10
    311e:	0e 94 36 1e 	call	0x3c6c	; 0x3c6c <sin>
    3122:	6d 83       	std	Y+5, r22	; 0x05
    3124:	7e 83       	std	Y+6, r23	; 0x06
    3126:	8f 83       	std	Y+7, r24	; 0x07
    3128:	98 87       	std	Y+8, r25	; 0x08
    312a:	61 2f       	mov	r22, r17
    312c:	70 2f       	mov	r23, r16
    312e:	83 2d       	mov	r24, r3
    3130:	92 2d       	mov	r25, r2
    3132:	0e 94 36 1e 	call	0x3c6c	; 0x3c6c <sin>
    3136:	4b 01       	movw	r8, r22
    3138:	5c 01       	movw	r10, r24
    313a:	ac a5       	ldd	r26, Y+44	; 0x2c
    313c:	bd a5       	ldd	r27, Y+45	; 0x2d
    313e:	5c 96       	adiw	r26, 0x1c	; 28
    3140:	8d 91       	ld	r24, X+
    3142:	9d 91       	ld	r25, X+
    3144:	0d 90       	ld	r0, X+
    3146:	bc 91       	ld	r27, X
    3148:	a0 2d       	mov	r26, r0
    314a:	89 83       	std	Y+1, r24	; 0x01
    314c:	9a 83       	std	Y+2, r25	; 0x02
    314e:	ab 83       	std	Y+3, r26	; 0x03
    3150:	bc 83       	std	Y+4, r27	; 0x04
    3152:	6d 85       	ldd	r22, Y+13	; 0x0d
    3154:	7e 85       	ldd	r23, Y+14	; 0x0e
    3156:	8f 85       	ldd	r24, Y+15	; 0x0f
    3158:	98 89       	ldd	r25, Y+16	; 0x10
    315a:	0e 94 a7 1b 	call	0x374e	; 0x374e <cos>
    315e:	69 87       	std	Y+9, r22	; 0x09
    3160:	7a 87       	std	Y+10, r23	; 0x0a
    3162:	8b 87       	std	Y+11, r24	; 0x0b
    3164:	9c 87       	std	Y+12, r25	; 0x0c
    3166:	ec a5       	ldd	r30, Y+44	; 0x2c
    3168:	fd a5       	ldd	r31, Y+45	; 0x2d
    316a:	c0 a0       	ldd	r12, Z+32	; 0x20
    316c:	d1 a0       	ldd	r13, Z+33	; 0x21
    316e:	e2 a0       	ldd	r14, Z+34	; 0x22
    3170:	f3 a0       	ldd	r15, Z+35	; 0x23
    3172:	20 8d       	ldd	r18, Z+24	; 0x18
    3174:	31 8d       	ldd	r19, Z+25	; 0x19
    3176:	42 8d       	ldd	r20, Z+26	; 0x1a
    3178:	53 8d       	ldd	r21, Z+27	; 0x1b
    317a:	6d 8d       	ldd	r22, Y+29	; 0x1d
    317c:	7e 8d       	ldd	r23, Y+30	; 0x1e
    317e:	8f 8d       	ldd	r24, Y+31	; 0x1f
    3180:	98 a1       	ldd	r25, Y+32	; 0x20
    3182:	0e 94 79 1d 	call	0x3af2	; 0x3af2 <__mulsf3>
    3186:	2b 01       	movw	r4, r22
    3188:	3c 01       	movw	r6, r24
    318a:	a5 01       	movw	r20, r10
    318c:	94 01       	movw	r18, r8
    318e:	6d 81       	ldd	r22, Y+5	; 0x05
    3190:	7e 81       	ldd	r23, Y+6	; 0x06
    3192:	8f 81       	ldd	r24, Y+7	; 0x07
    3194:	98 85       	ldd	r25, Y+8	; 0x08
    3196:	0e 94 79 1d 	call	0x3af2	; 0x3af2 <__mulsf3>
    319a:	29 81       	ldd	r18, Y+1	; 0x01
    319c:	3a 81       	ldd	r19, Y+2	; 0x02
    319e:	4b 81       	ldd	r20, Y+3	; 0x03
    31a0:	5c 81       	ldd	r21, Y+4	; 0x04
    31a2:	0e 94 79 1d 	call	0x3af2	; 0x3af2 <__mulsf3>
    31a6:	9b 01       	movw	r18, r22
    31a8:	ac 01       	movw	r20, r24
    31aa:	c3 01       	movw	r24, r6
    31ac:	b2 01       	movw	r22, r4
    31ae:	0e 94 c4 1a 	call	0x3588	; 0x3588 <__addsf3>
    31b2:	2b 01       	movw	r4, r22
    31b4:	3c 01       	movw	r6, r24
    31b6:	29 85       	ldd	r18, Y+9	; 0x09
    31b8:	3a 85       	ldd	r19, Y+10	; 0x0a
    31ba:	4b 85       	ldd	r20, Y+11	; 0x0b
    31bc:	5c 85       	ldd	r21, Y+12	; 0x0c
    31be:	c5 01       	movw	r24, r10
    31c0:	b4 01       	movw	r22, r8
    31c2:	0e 94 79 1d 	call	0x3af2	; 0x3af2 <__mulsf3>
    31c6:	a7 01       	movw	r20, r14
    31c8:	96 01       	movw	r18, r12
    31ca:	0e 94 79 1d 	call	0x3af2	; 0x3af2 <__mulsf3>
    31ce:	9b 01       	movw	r18, r22
    31d0:	ac 01       	movw	r20, r24
    31d2:	c3 01       	movw	r24, r6
    31d4:	b2 01       	movw	r22, r4
    31d6:	0e 94 c4 1a 	call	0x3588	; 0x3588 <__addsf3>
    31da:	4b 01       	movw	r8, r22
    31dc:	5c 01       	movw	r10, r24
    31de:	29 85       	ldd	r18, Y+9	; 0x09
    31e0:	3a 85       	ldd	r19, Y+10	; 0x0a
    31e2:	4b 85       	ldd	r20, Y+11	; 0x0b
    31e4:	5c 85       	ldd	r21, Y+12	; 0x0c
    31e6:	69 81       	ldd	r22, Y+1	; 0x01
    31e8:	7a 81       	ldd	r23, Y+2	; 0x02
    31ea:	8b 81       	ldd	r24, Y+3	; 0x03
    31ec:	9c 81       	ldd	r25, Y+4	; 0x04
    31ee:	0e 94 79 1d 	call	0x3af2	; 0x3af2 <__mulsf3>
    31f2:	2b 01       	movw	r4, r22
    31f4:	3c 01       	movw	r6, r24
    31f6:	a7 01       	movw	r20, r14
    31f8:	96 01       	movw	r18, r12
    31fa:	6d 81       	ldd	r22, Y+5	; 0x05
    31fc:	7e 81       	ldd	r23, Y+6	; 0x06
    31fe:	8f 81       	ldd	r24, Y+7	; 0x07
    3200:	98 85       	ldd	r25, Y+8	; 0x08
    3202:	0e 94 79 1d 	call	0x3af2	; 0x3af2 <__mulsf3>
    3206:	9b 01       	movw	r18, r22
    3208:	ac 01       	movw	r20, r24
    320a:	c3 01       	movw	r24, r6
    320c:	b2 01       	movw	r22, r4
    320e:	0e 94 c3 1a 	call	0x3586	; 0x3586 <__subsf3>
    3212:	a5 01       	movw	r20, r10
    3214:	94 01       	movw	r18, r8
    3216:	0e 94 43 1b 	call	0x3686	; 0x3686 <atan2>
    321a:	2b 01       	movw	r4, r22
    321c:	3c 01       	movw	r6, r24
    321e:	77 fa       	bst	r7, 7
    3220:	70 94       	com	r7
    3222:	77 f8       	bld	r7, 7
    3224:	70 94       	com	r7
    3226:	a3 01       	movw	r20, r6
    3228:	92 01       	movw	r18, r4
    322a:	c3 01       	movw	r24, r6
    322c:	b2 01       	movw	r22, r4
    322e:	0e 94 ad 1e 	call	0x3d5a	; 0x3d5a <__unordsf2>
    3232:	ac a5       	ldd	r26, Y+44	; 0x2c
    3234:	bd a5       	ldd	r27, Y+45	; 0x2d
    3236:	9c 96       	adiw	r26, 0x2c	; 44
    3238:	bc 91       	ld	r27, X
    323a:	b8 a7       	std	Y+40, r27	; 0x28
    323c:	ec a5       	ldd	r30, Y+44	; 0x2c
    323e:	fd a5       	ldd	r31, Y+45	; 0x2d
    3240:	f5 a5       	ldd	r31, Z+45	; 0x2d
    3242:	f9 a7       	std	Y+41, r31	; 0x29
    3244:	ac a5       	ldd	r26, Y+44	; 0x2c
    3246:	bd a5       	ldd	r27, Y+45	; 0x2d
    3248:	9e 96       	adiw	r26, 0x2e	; 46
    324a:	bc 91       	ld	r27, X
    324c:	ba a7       	std	Y+42, r27	; 0x2a
    324e:	ec a5       	ldd	r30, Y+44	; 0x2c
    3250:	fd a5       	ldd	r31, Y+45	; 0x2d
    3252:	f7 a5       	ldd	r31, Z+47	; 0x2f
    3254:	fb a7       	std	Y+43, r31	; 0x2b
    3256:	88 23       	and	r24, r24
    3258:	31 f0       	breq	.+12     	; 0x3266 <Observer+0x296>
    325a:	88 a5       	ldd	r24, Y+40	; 0x28
    325c:	99 a5       	ldd	r25, Y+41	; 0x29
    325e:	ab 2f       	mov	r26, r27
    3260:	bf 2f       	mov	r27, r31
    3262:	2c 01       	movw	r4, r24
    3264:	3d 01       	movw	r6, r26
    3266:	20 e0       	ldi	r18, 0x00	; 0
    3268:	30 e0       	ldi	r19, 0x00	; 0
    326a:	a9 01       	movw	r20, r18
    326c:	c3 01       	movw	r24, r6
    326e:	b2 01       	movw	r22, r4
    3270:	0e 94 a2 1b 	call	0x3744	; 0x3744 <__cmpsf2>
    3274:	18 16       	cp	r1, r24
    3276:	54 f0       	brlt	.+20     	; 0x328c <Observer+0x2bc>
    3278:	2b ed       	ldi	r18, 0xDB	; 219
    327a:	3f e0       	ldi	r19, 0x0F	; 15
    327c:	49 ec       	ldi	r20, 0xC9	; 201
    327e:	50 e4       	ldi	r21, 0x40	; 64
    3280:	c3 01       	movw	r24, r6
    3282:	b2 01       	movw	r22, r4
    3284:	0e 94 c4 1a 	call	0x3588	; 0x3588 <__addsf3>
    3288:	2b 01       	movw	r4, r22
    328a:	3c 01       	movw	r6, r24
    328c:	c8 a4       	ldd	r12, Y+40	; 0x28
    328e:	d9 a4       	ldd	r13, Y+41	; 0x29
    3290:	ea a4       	ldd	r14, Y+42	; 0x2a
    3292:	fb a4       	ldd	r15, Y+43	; 0x2b
    3294:	61 2f       	mov	r22, r17
    3296:	70 2f       	mov	r23, r16
    3298:	83 2d       	mov	r24, r3
    329a:	92 2d       	mov	r25, r2
    329c:	0e 94 1e 1c 	call	0x383c	; 0x383c <__fixsfsi>
    32a0:	9b 01       	movw	r18, r22
    32a2:	77 ff       	sbrs	r23, 7
    32a4:	04 c0       	rjmp	.+8      	; 0x32ae <Observer+0x2de>
    32a6:	22 27       	eor	r18, r18
    32a8:	33 27       	eor	r19, r19
    32aa:	26 1b       	sub	r18, r22
    32ac:	37 0b       	sbc	r19, r23
    32ae:	b9 01       	movw	r22, r18
    32b0:	33 0f       	add	r19, r19
    32b2:	88 0b       	sbc	r24, r24
    32b4:	99 0b       	sbc	r25, r25
    32b6:	0e 94 56 1c 	call	0x38ac	; 0x38ac <__floatsisf>
    32ba:	2b ed       	ldi	r18, 0xDB	; 219
    32bc:	3f e0       	ldi	r19, 0x0F	; 15
    32be:	49 ec       	ldi	r20, 0xC9	; 201
    32c0:	5f e3       	ldi	r21, 0x3F	; 63
    32c2:	0e 94 c3 1a 	call	0x3586	; 0x3586 <__subsf3>
    32c6:	0e 94 1e 1c 	call	0x383c	; 0x383c <__fixsfsi>
    32ca:	9b 01       	movw	r18, r22
    32cc:	77 ff       	sbrs	r23, 7
    32ce:	04 c0       	rjmp	.+8      	; 0x32d8 <Observer+0x308>
    32d0:	22 27       	eor	r18, r18
    32d2:	33 27       	eor	r19, r19
    32d4:	26 1b       	sub	r18, r22
    32d6:	37 0b       	sbc	r19, r23
    32d8:	b9 01       	movw	r22, r18
    32da:	33 0f       	add	r19, r19
    32dc:	88 0b       	sbc	r24, r24
    32de:	99 0b       	sbc	r25, r25
    32e0:	0e 94 56 1c 	call	0x38ac	; 0x38ac <__floatsisf>
    32e4:	23 ec       	ldi	r18, 0xC3	; 195
    32e6:	38 eb       	ldi	r19, 0xB8	; 184
    32e8:	42 eb       	ldi	r20, 0xB2	; 178
    32ea:	5d e3       	ldi	r21, 0x3D	; 61
    32ec:	0e 94 6c 1d 	call	0x3ad8	; 0x3ad8 <__gesf2>
    32f0:	18 16       	cp	r1, r24
    32f2:	0c f0       	brlt	.+2      	; 0x32f6 <Observer+0x326>
    32f4:	bc c0       	rjmp	.+376    	; 0x346e <Observer+0x49e>
    32f6:	61 2f       	mov	r22, r17
    32f8:	70 2f       	mov	r23, r16
    32fa:	83 2d       	mov	r24, r3
    32fc:	92 2d       	mov	r25, r2
    32fe:	0e 94 88 1e 	call	0x3d10	; 0x3d10 <tan>
    3302:	4b 01       	movw	r8, r22
    3304:	5c 01       	movw	r10, r24
    3306:	ac a5       	ldd	r26, Y+44	; 0x2c
    3308:	bd a5       	ldd	r27, Y+45	; 0x2d
    330a:	14 96       	adiw	r26, 0x04	; 4
    330c:	cd 90       	ld	r12, X+
    330e:	dd 90       	ld	r13, X+
    3310:	ed 90       	ld	r14, X+
    3312:	fc 90       	ld	r15, X
    3314:	17 97       	sbiw	r26, 0x07	; 7
    3316:	18 96       	adiw	r26, 0x08	; 8
    3318:	8d 91       	ld	r24, X+
    331a:	9d 91       	ld	r25, X+
    331c:	0d 90       	ld	r0, X+
    331e:	bc 91       	ld	r27, X
    3320:	a0 2d       	mov	r26, r0
    3322:	89 83       	std	Y+1, r24	; 0x01
    3324:	9a 83       	std	Y+2, r25	; 0x02
    3326:	ab 83       	std	Y+3, r26	; 0x03
    3328:	bc 83       	std	Y+4, r27	; 0x04
    332a:	a5 01       	movw	r20, r10
    332c:	94 01       	movw	r18, r8
    332e:	6d 81       	ldd	r22, Y+5	; 0x05
    3330:	7e 81       	ldd	r23, Y+6	; 0x06
    3332:	8f 81       	ldd	r24, Y+7	; 0x07
    3334:	98 85       	ldd	r25, Y+8	; 0x08
    3336:	0e 94 79 1d 	call	0x3af2	; 0x3af2 <__mulsf3>
    333a:	a7 01       	movw	r20, r14
    333c:	96 01       	movw	r18, r12
    333e:	0e 94 79 1d 	call	0x3af2	; 0x3af2 <__mulsf3>
    3342:	ec a5       	ldd	r30, Y+44	; 0x2c
    3344:	fd a5       	ldd	r31, Y+45	; 0x2d
    3346:	20 81       	ld	r18, Z
    3348:	31 81       	ldd	r19, Z+1	; 0x01
    334a:	42 81       	ldd	r20, Z+2	; 0x02
    334c:	53 81       	ldd	r21, Z+3	; 0x03
    334e:	0e 94 c4 1a 	call	0x3588	; 0x3588 <__addsf3>
    3352:	69 8b       	std	Y+17, r22	; 0x11
    3354:	7a 8b       	std	Y+18, r23	; 0x12
    3356:	8b 8b       	std	Y+19, r24	; 0x13
    3358:	9c 8b       	std	Y+20, r25	; 0x14
    335a:	a5 01       	movw	r20, r10
    335c:	94 01       	movw	r18, r8
    335e:	69 85       	ldd	r22, Y+9	; 0x09
    3360:	7a 85       	ldd	r23, Y+10	; 0x0a
    3362:	8b 85       	ldd	r24, Y+11	; 0x0b
    3364:	9c 85       	ldd	r25, Y+12	; 0x0c
    3366:	0e 94 79 1d 	call	0x3af2	; 0x3af2 <__mulsf3>
    336a:	29 81       	ldd	r18, Y+1	; 0x01
    336c:	3a 81       	ldd	r19, Y+2	; 0x02
    336e:	4b 81       	ldd	r20, Y+3	; 0x03
    3370:	5c 81       	ldd	r21, Y+4	; 0x04
    3372:	0e 94 79 1d 	call	0x3af2	; 0x3af2 <__mulsf3>
    3376:	9b 01       	movw	r18, r22
    3378:	ac 01       	movw	r20, r24
    337a:	69 89       	ldd	r22, Y+17	; 0x11
    337c:	7a 89       	ldd	r23, Y+18	; 0x12
    337e:	8b 89       	ldd	r24, Y+19	; 0x13
    3380:	9c 89       	ldd	r25, Y+20	; 0x14
    3382:	0e 94 c4 1a 	call	0x3588	; 0x3588 <__addsf3>
    3386:	2a e0       	ldi	r18, 0x0A	; 10
    3388:	37 ed       	ldi	r19, 0xD7	; 215
    338a:	43 e2       	ldi	r20, 0x23	; 35
    338c:	5d e3       	ldi	r21, 0x3D	; 61
    338e:	0e 94 79 1d 	call	0x3af2	; 0x3af2 <__mulsf3>
    3392:	9b 01       	movw	r18, r22
    3394:	ac 01       	movw	r20, r24
    3396:	6d 85       	ldd	r22, Y+13	; 0x0d
    3398:	7e 85       	ldd	r23, Y+14	; 0x0e
    339a:	8f 85       	ldd	r24, Y+15	; 0x0f
    339c:	98 89       	ldd	r25, Y+16	; 0x10
    339e:	0e 94 c4 1a 	call	0x3588	; 0x3588 <__addsf3>
    33a2:	69 8b       	std	Y+17, r22	; 0x11
    33a4:	79 a3       	std	Y+33, r23	; 0x21
    33a6:	8a a3       	std	Y+34, r24	; 0x22
    33a8:	9b a3       	std	Y+35, r25	; 0x23
    33aa:	a7 01       	movw	r20, r14
    33ac:	96 01       	movw	r18, r12
    33ae:	69 85       	ldd	r22, Y+9	; 0x09
    33b0:	7a 85       	ldd	r23, Y+10	; 0x0a
    33b2:	8b 85       	ldd	r24, Y+11	; 0x0b
    33b4:	9c 85       	ldd	r25, Y+12	; 0x0c
    33b6:	0e 94 79 1d 	call	0x3af2	; 0x3af2 <__mulsf3>
    33ba:	4b 01       	movw	r8, r22
    33bc:	5c 01       	movw	r10, r24
    33be:	29 81       	ldd	r18, Y+1	; 0x01
    33c0:	3a 81       	ldd	r19, Y+2	; 0x02
    33c2:	4b 81       	ldd	r20, Y+3	; 0x03
    33c4:	5c 81       	ldd	r21, Y+4	; 0x04
    33c6:	6d 81       	ldd	r22, Y+5	; 0x05
    33c8:	7e 81       	ldd	r23, Y+6	; 0x06
    33ca:	8f 81       	ldd	r24, Y+7	; 0x07
    33cc:	98 85       	ldd	r25, Y+8	; 0x08
    33ce:	0e 94 79 1d 	call	0x3af2	; 0x3af2 <__mulsf3>
    33d2:	9b 01       	movw	r18, r22
    33d4:	ac 01       	movw	r20, r24
    33d6:	c5 01       	movw	r24, r10
    33d8:	b4 01       	movw	r22, r8
    33da:	0e 94 c3 1a 	call	0x3586	; 0x3586 <__subsf3>
    33de:	2a e0       	ldi	r18, 0x0A	; 10
    33e0:	37 ed       	ldi	r19, 0xD7	; 215
    33e2:	43 e2       	ldi	r20, 0x23	; 35
    33e4:	5d e3       	ldi	r21, 0x3D	; 61
    33e6:	0e 94 79 1d 	call	0x3af2	; 0x3af2 <__mulsf3>
    33ea:	9b 01       	movw	r18, r22
    33ec:	ac 01       	movw	r20, r24
    33ee:	61 2f       	mov	r22, r17
    33f0:	70 2f       	mov	r23, r16
    33f2:	83 2d       	mov	r24, r3
    33f4:	92 2d       	mov	r25, r2
    33f6:	0e 94 c4 1a 	call	0x3588	; 0x3588 <__addsf3>
    33fa:	6c a3       	std	Y+36, r22	; 0x24
    33fc:	7d a3       	std	Y+37, r23	; 0x25
    33fe:	8e a3       	std	Y+38, r24	; 0x26
    3400:	9f a3       	std	Y+39, r25	; 0x27
    3402:	2d 8d       	ldd	r18, Y+29	; 0x1d
    3404:	3e 8d       	ldd	r19, Y+30	; 0x1e
    3406:	4f 8d       	ldd	r20, Y+31	; 0x1f
    3408:	58 a1       	ldd	r21, Y+32	; 0x20
    340a:	6d 81       	ldd	r22, Y+5	; 0x05
    340c:	7e 81       	ldd	r23, Y+6	; 0x06
    340e:	8f 81       	ldd	r24, Y+7	; 0x07
    3410:	98 85       	ldd	r25, Y+8	; 0x08
    3412:	0e 94 ac 1b 	call	0x3758	; 0x3758 <__divsf3>
    3416:	a7 01       	movw	r20, r14
    3418:	96 01       	movw	r18, r12
    341a:	0e 94 79 1d 	call	0x3af2	; 0x3af2 <__mulsf3>
    341e:	6b 01       	movw	r12, r22
    3420:	7c 01       	movw	r14, r24
    3422:	2d 8d       	ldd	r18, Y+29	; 0x1d
    3424:	3e 8d       	ldd	r19, Y+30	; 0x1e
    3426:	4f 8d       	ldd	r20, Y+31	; 0x1f
    3428:	58 a1       	ldd	r21, Y+32	; 0x20
    342a:	69 85       	ldd	r22, Y+9	; 0x09
    342c:	7a 85       	ldd	r23, Y+10	; 0x0a
    342e:	8b 85       	ldd	r24, Y+11	; 0x0b
    3430:	9c 85       	ldd	r25, Y+12	; 0x0c
    3432:	0e 94 ac 1b 	call	0x3758	; 0x3758 <__divsf3>
    3436:	29 81       	ldd	r18, Y+1	; 0x01
    3438:	3a 81       	ldd	r19, Y+2	; 0x02
    343a:	4b 81       	ldd	r20, Y+3	; 0x03
    343c:	5c 81       	ldd	r21, Y+4	; 0x04
    343e:	0e 94 79 1d 	call	0x3af2	; 0x3af2 <__mulsf3>
    3442:	9b 01       	movw	r18, r22
    3444:	ac 01       	movw	r20, r24
    3446:	c7 01       	movw	r24, r14
    3448:	b6 01       	movw	r22, r12
    344a:	0e 94 c4 1a 	call	0x3588	; 0x3588 <__addsf3>
    344e:	2a e0       	ldi	r18, 0x0A	; 10
    3450:	37 ed       	ldi	r19, 0xD7	; 215
    3452:	43 e2       	ldi	r20, 0x23	; 35
    3454:	5d e3       	ldi	r21, 0x3D	; 61
    3456:	0e 94 79 1d 	call	0x3af2	; 0x3af2 <__mulsf3>
    345a:	9b 01       	movw	r18, r22
    345c:	ac 01       	movw	r20, r24
    345e:	68 a5       	ldd	r22, Y+40	; 0x28
    3460:	79 a5       	ldd	r23, Y+41	; 0x29
    3462:	8a a5       	ldd	r24, Y+42	; 0x2a
    3464:	9b a5       	ldd	r25, Y+43	; 0x2b
    3466:	0e 94 c4 1a 	call	0x3588	; 0x3588 <__addsf3>
    346a:	6b 01       	movw	r12, r22
    346c:	7c 01       	movw	r14, r24
    346e:	29 89       	ldd	r18, Y+17	; 0x11
    3470:	39 a1       	ldd	r19, Y+33	; 0x21
    3472:	4a a1       	ldd	r20, Y+34	; 0x22
    3474:	5b a1       	ldd	r21, Y+35	; 0x23
    3476:	6d 89       	ldd	r22, Y+21	; 0x15
    3478:	7e 89       	ldd	r23, Y+22	; 0x16
    347a:	8f 89       	ldd	r24, Y+23	; 0x17
    347c:	98 8d       	ldd	r25, Y+24	; 0x18
    347e:	0e 94 c3 1a 	call	0x3586	; 0x3586 <__subsf3>
    3482:	2d ec       	ldi	r18, 0xCD	; 205
    3484:	3c ec       	ldi	r19, 0xCC	; 204
    3486:	4c e4       	ldi	r20, 0x4C	; 76
    3488:	5d e3       	ldi	r21, 0x3D	; 61
    348a:	0e 94 79 1d 	call	0x3af2	; 0x3af2 <__mulsf3>
    348e:	29 89       	ldd	r18, Y+17	; 0x11
    3490:	39 a1       	ldd	r19, Y+33	; 0x21
    3492:	4a a1       	ldd	r20, Y+34	; 0x22
    3494:	5b a1       	ldd	r21, Y+35	; 0x23
    3496:	0e 94 c4 1a 	call	0x3588	; 0x3588 <__addsf3>
    349a:	ac a5       	ldd	r26, Y+44	; 0x2c
    349c:	bd a5       	ldd	r27, Y+45	; 0x2d
    349e:	94 96       	adiw	r26, 0x24	; 36
    34a0:	6d 93       	st	X+, r22
    34a2:	7d 93       	st	X+, r23
    34a4:	8d 93       	st	X+, r24
    34a6:	9c 93       	st	X, r25
    34a8:	97 97       	sbiw	r26, 0x27	; 39
    34aa:	2c a1       	ldd	r18, Y+36	; 0x24
    34ac:	3d a1       	ldd	r19, Y+37	; 0x25
    34ae:	4e a1       	ldd	r20, Y+38	; 0x26
    34b0:	5f a1       	ldd	r21, Y+39	; 0x27
    34b2:	69 8d       	ldd	r22, Y+25	; 0x19
    34b4:	7a 8d       	ldd	r23, Y+26	; 0x1a
    34b6:	8b 8d       	ldd	r24, Y+27	; 0x1b
    34b8:	9c 8d       	ldd	r25, Y+28	; 0x1c
    34ba:	0e 94 c3 1a 	call	0x3586	; 0x3586 <__subsf3>
    34be:	2d ec       	ldi	r18, 0xCD	; 205
    34c0:	3c ec       	ldi	r19, 0xCC	; 204
    34c2:	4c e4       	ldi	r20, 0x4C	; 76
    34c4:	5d e3       	ldi	r21, 0x3D	; 61
    34c6:	0e 94 79 1d 	call	0x3af2	; 0x3af2 <__mulsf3>
    34ca:	2c a1       	ldd	r18, Y+36	; 0x24
    34cc:	3d a1       	ldd	r19, Y+37	; 0x25
    34ce:	4e a1       	ldd	r20, Y+38	; 0x26
    34d0:	5f a1       	ldd	r21, Y+39	; 0x27
    34d2:	0e 94 c4 1a 	call	0x3588	; 0x3588 <__addsf3>
    34d6:	ec a5       	ldd	r30, Y+44	; 0x2c
    34d8:	fd a5       	ldd	r31, Y+45	; 0x2d
    34da:	60 a7       	std	Z+40, r22	; 0x28
    34dc:	71 a7       	std	Z+41, r23	; 0x29
    34de:	82 a7       	std	Z+42, r24	; 0x2a
    34e0:	93 a7       	std	Z+43, r25	; 0x2b
    34e2:	96 01       	movw	r18, r12
    34e4:	a7 01       	movw	r20, r14
    34e6:	c3 01       	movw	r24, r6
    34e8:	b2 01       	movw	r22, r4
    34ea:	0e 94 c3 1a 	call	0x3586	; 0x3586 <__subsf3>
    34ee:	4b 01       	movw	r8, r22
    34f0:	5c 01       	movw	r10, r24
    34f2:	0e 94 1e 1c 	call	0x383c	; 0x383c <__fixsfsi>
    34f6:	9b 01       	movw	r18, r22
    34f8:	77 ff       	sbrs	r23, 7
    34fa:	04 c0       	rjmp	.+8      	; 0x3504 <Observer+0x534>
    34fc:	22 27       	eor	r18, r18
    34fe:	33 27       	eor	r19, r19
    3500:	26 1b       	sub	r18, r22
    3502:	37 0b       	sbc	r19, r23
    3504:	b9 01       	movw	r22, r18
    3506:	33 0f       	add	r19, r19
    3508:	88 0b       	sbc	r24, r24
    350a:	99 0b       	sbc	r25, r25
    350c:	0e 94 56 1c 	call	0x38ac	; 0x38ac <__floatsisf>
    3510:	2b ed       	ldi	r18, 0xDB	; 219
    3512:	3f e0       	ldi	r19, 0x0F	; 15
    3514:	49 e4       	ldi	r20, 0x49	; 73
    3516:	50 e4       	ldi	r21, 0x40	; 64
    3518:	0e 94 6c 1d 	call	0x3ad8	; 0x3ad8 <__gesf2>
    351c:	18 16       	cp	r1, r24
    351e:	7c f0       	brlt	.+30     	; 0x353e <Observer+0x56e>
    3520:	2d ec       	ldi	r18, 0xCD	; 205
    3522:	3c ec       	ldi	r19, 0xCC	; 204
    3524:	4c e4       	ldi	r20, 0x4C	; 76
    3526:	5d e3       	ldi	r21, 0x3D	; 61
    3528:	c5 01       	movw	r24, r10
    352a:	b4 01       	movw	r22, r8
    352c:	0e 94 79 1d 	call	0x3af2	; 0x3af2 <__mulsf3>
    3530:	96 01       	movw	r18, r12
    3532:	a7 01       	movw	r20, r14
    3534:	0e 94 c4 1a 	call	0x3588	; 0x3588 <__addsf3>
    3538:	36 2f       	mov	r19, r22
    353a:	27 2f       	mov	r18, r23
    353c:	03 c0       	rjmp	.+6      	; 0x3544 <Observer+0x574>
    353e:	34 2d       	mov	r19, r4
    3540:	25 2d       	mov	r18, r5
    3542:	c3 01       	movw	r24, r6
    3544:	43 2f       	mov	r20, r19
    3546:	52 2f       	mov	r21, r18
    3548:	bc 01       	movw	r22, r24
    354a:	ac a5       	ldd	r26, Y+44	; 0x2c
    354c:	bd a5       	ldd	r27, Y+45	; 0x2d
    354e:	9c 96       	adiw	r26, 0x2c	; 44
    3550:	4d 93       	st	X+, r20
    3552:	5d 93       	st	X+, r21
    3554:	6d 93       	st	X+, r22
    3556:	7c 93       	st	X, r23
    3558:	9f 97       	sbiw	r26, 0x2f	; 47
    355a:	ad 96       	adiw	r28, 0x2d	; 45
    355c:	cd bf       	out	0x3d, r28	; 61
    355e:	de bf       	out	0x3e, r29	; 62
    3560:	df 91       	pop	r29
    3562:	cf 91       	pop	r28
    3564:	1f 91       	pop	r17
    3566:	0f 91       	pop	r16
    3568:	ff 90       	pop	r15
    356a:	ef 90       	pop	r14
    356c:	df 90       	pop	r13
    356e:	cf 90       	pop	r12
    3570:	bf 90       	pop	r11
    3572:	af 90       	pop	r10
    3574:	9f 90       	pop	r9
    3576:	8f 90       	pop	r8
    3578:	7f 90       	pop	r7
    357a:	6f 90       	pop	r6
    357c:	5f 90       	pop	r5
    357e:	4f 90       	pop	r4
    3580:	3f 90       	pop	r3
    3582:	2f 90       	pop	r2
    3584:	08 95       	ret

00003586 <__subsf3>:
    3586:	50 58       	subi	r21, 0x80	; 128

00003588 <__addsf3>:
    3588:	bb 27       	eor	r27, r27
    358a:	aa 27       	eor	r26, r26
    358c:	0e 94 db 1a 	call	0x35b6	; 0x35b6 <__addsf3x>
    3590:	0c 94 1e 1d 	jmp	0x3a3c	; 0x3a3c <__fp_round>
    3594:	0e 94 e5 1c 	call	0x39ca	; 0x39ca <__fp_pscA>
    3598:	38 f0       	brcs	.+14     	; 0x35a8 <__addsf3+0x20>
    359a:	0e 94 ec 1c 	call	0x39d8	; 0x39d8 <__fp_pscB>
    359e:	20 f0       	brcs	.+8      	; 0x35a8 <__addsf3+0x20>
    35a0:	39 f4       	brne	.+14     	; 0x35b0 <__addsf3+0x28>
    35a2:	9f 3f       	cpi	r25, 0xFF	; 255
    35a4:	19 f4       	brne	.+6      	; 0x35ac <__addsf3+0x24>
    35a6:	26 f4       	brtc	.+8      	; 0x35b0 <__addsf3+0x28>
    35a8:	0c 94 bb 1c 	jmp	0x3976	; 0x3976 <__fp_nan>
    35ac:	0e f4       	brtc	.+2      	; 0x35b0 <__addsf3+0x28>
    35ae:	e0 95       	com	r30
    35b0:	e7 fb       	bst	r30, 7
    35b2:	0c 94 b5 1c 	jmp	0x396a	; 0x396a <__fp_inf>

000035b6 <__addsf3x>:
    35b6:	e9 2f       	mov	r30, r25
    35b8:	0e 94 43 1d 	call	0x3a86	; 0x3a86 <__fp_split3>
    35bc:	58 f3       	brcs	.-42     	; 0x3594 <__addsf3+0xc>
    35be:	ba 17       	cp	r27, r26
    35c0:	62 07       	cpc	r22, r18
    35c2:	73 07       	cpc	r23, r19
    35c4:	84 07       	cpc	r24, r20
    35c6:	95 07       	cpc	r25, r21
    35c8:	20 f0       	brcs	.+8      	; 0x35d2 <__addsf3x+0x1c>
    35ca:	79 f4       	brne	.+30     	; 0x35ea <__addsf3x+0x34>
    35cc:	a6 f5       	brtc	.+104    	; 0x3636 <__addsf3x+0x80>
    35ce:	0c 94 65 1d 	jmp	0x3aca	; 0x3aca <__fp_zero>
    35d2:	0e f4       	brtc	.+2      	; 0x35d6 <__addsf3x+0x20>
    35d4:	e0 95       	com	r30
    35d6:	0b 2e       	mov	r0, r27
    35d8:	ba 2f       	mov	r27, r26
    35da:	a0 2d       	mov	r26, r0
    35dc:	0b 01       	movw	r0, r22
    35de:	b9 01       	movw	r22, r18
    35e0:	90 01       	movw	r18, r0
    35e2:	0c 01       	movw	r0, r24
    35e4:	ca 01       	movw	r24, r20
    35e6:	a0 01       	movw	r20, r0
    35e8:	11 24       	eor	r1, r1
    35ea:	ff 27       	eor	r31, r31
    35ec:	59 1b       	sub	r21, r25
    35ee:	99 f0       	breq	.+38     	; 0x3616 <__addsf3x+0x60>
    35f0:	59 3f       	cpi	r21, 0xF9	; 249
    35f2:	50 f4       	brcc	.+20     	; 0x3608 <__addsf3x+0x52>
    35f4:	50 3e       	cpi	r21, 0xE0	; 224
    35f6:	68 f1       	brcs	.+90     	; 0x3652 <__addsf3x+0x9c>
    35f8:	1a 16       	cp	r1, r26
    35fa:	f0 40       	sbci	r31, 0x00	; 0
    35fc:	a2 2f       	mov	r26, r18
    35fe:	23 2f       	mov	r18, r19
    3600:	34 2f       	mov	r19, r20
    3602:	44 27       	eor	r20, r20
    3604:	58 5f       	subi	r21, 0xF8	; 248
    3606:	f3 cf       	rjmp	.-26     	; 0x35ee <__addsf3x+0x38>
    3608:	46 95       	lsr	r20
    360a:	37 95       	ror	r19
    360c:	27 95       	ror	r18
    360e:	a7 95       	ror	r26
    3610:	f0 40       	sbci	r31, 0x00	; 0
    3612:	53 95       	inc	r21
    3614:	c9 f7       	brne	.-14     	; 0x3608 <__addsf3x+0x52>
    3616:	7e f4       	brtc	.+30     	; 0x3636 <__addsf3x+0x80>
    3618:	1f 16       	cp	r1, r31
    361a:	ba 0b       	sbc	r27, r26
    361c:	62 0b       	sbc	r22, r18
    361e:	73 0b       	sbc	r23, r19
    3620:	84 0b       	sbc	r24, r20
    3622:	ba f0       	brmi	.+46     	; 0x3652 <__addsf3x+0x9c>
    3624:	91 50       	subi	r25, 0x01	; 1
    3626:	a1 f0       	breq	.+40     	; 0x3650 <__addsf3x+0x9a>
    3628:	ff 0f       	add	r31, r31
    362a:	bb 1f       	adc	r27, r27
    362c:	66 1f       	adc	r22, r22
    362e:	77 1f       	adc	r23, r23
    3630:	88 1f       	adc	r24, r24
    3632:	c2 f7       	brpl	.-16     	; 0x3624 <__addsf3x+0x6e>
    3634:	0e c0       	rjmp	.+28     	; 0x3652 <__addsf3x+0x9c>
    3636:	ba 0f       	add	r27, r26
    3638:	62 1f       	adc	r22, r18
    363a:	73 1f       	adc	r23, r19
    363c:	84 1f       	adc	r24, r20
    363e:	48 f4       	brcc	.+18     	; 0x3652 <__addsf3x+0x9c>
    3640:	87 95       	ror	r24
    3642:	77 95       	ror	r23
    3644:	67 95       	ror	r22
    3646:	b7 95       	ror	r27
    3648:	f7 95       	ror	r31
    364a:	9e 3f       	cpi	r25, 0xFE	; 254
    364c:	08 f0       	brcs	.+2      	; 0x3650 <__addsf3x+0x9a>
    364e:	b0 cf       	rjmp	.-160    	; 0x35b0 <__addsf3+0x28>
    3650:	93 95       	inc	r25
    3652:	88 0f       	add	r24, r24
    3654:	08 f0       	brcs	.+2      	; 0x3658 <__addsf3x+0xa2>
    3656:	99 27       	eor	r25, r25
    3658:	ee 0f       	add	r30, r30
    365a:	97 95       	ror	r25
    365c:	87 95       	ror	r24
    365e:	08 95       	ret
    3660:	0e 94 e5 1c 	call	0x39ca	; 0x39ca <__fp_pscA>
    3664:	60 f0       	brcs	.+24     	; 0x367e <__addsf3x+0xc8>
    3666:	80 e8       	ldi	r24, 0x80	; 128
    3668:	91 e0       	ldi	r25, 0x01	; 1
    366a:	09 f4       	brne	.+2      	; 0x366e <__addsf3x+0xb8>
    366c:	9e ef       	ldi	r25, 0xFE	; 254
    366e:	0e 94 ec 1c 	call	0x39d8	; 0x39d8 <__fp_pscB>
    3672:	28 f0       	brcs	.+10     	; 0x367e <__addsf3x+0xc8>
    3674:	40 e8       	ldi	r20, 0x80	; 128
    3676:	51 e0       	ldi	r21, 0x01	; 1
    3678:	71 f4       	brne	.+28     	; 0x3696 <atan2+0x10>
    367a:	5e ef       	ldi	r21, 0xFE	; 254
    367c:	0c c0       	rjmp	.+24     	; 0x3696 <atan2+0x10>
    367e:	0c 94 bb 1c 	jmp	0x3976	; 0x3976 <__fp_nan>
    3682:	0c 94 65 1d 	jmp	0x3aca	; 0x3aca <__fp_zero>

00003686 <atan2>:
    3686:	e9 2f       	mov	r30, r25
    3688:	e0 78       	andi	r30, 0x80	; 128
    368a:	0e 94 43 1d 	call	0x3a86	; 0x3a86 <__fp_split3>
    368e:	40 f3       	brcs	.-48     	; 0x3660 <__addsf3x+0xaa>
    3690:	09 2e       	mov	r0, r25
    3692:	05 2a       	or	r0, r21
    3694:	b1 f3       	breq	.-20     	; 0x3682 <__addsf3x+0xcc>
    3696:	26 17       	cp	r18, r22
    3698:	37 07       	cpc	r19, r23
    369a:	48 07       	cpc	r20, r24
    369c:	59 07       	cpc	r21, r25
    369e:	38 f0       	brcs	.+14     	; 0x36ae <atan2+0x28>
    36a0:	0e 2e       	mov	r0, r30
    36a2:	07 f8       	bld	r0, 7
    36a4:	e0 25       	eor	r30, r0
    36a6:	69 f0       	breq	.+26     	; 0x36c2 <atan2+0x3c>
    36a8:	e0 25       	eor	r30, r0
    36aa:	e0 64       	ori	r30, 0x40	; 64
    36ac:	0a c0       	rjmp	.+20     	; 0x36c2 <atan2+0x3c>
    36ae:	ef 63       	ori	r30, 0x3F	; 63
    36b0:	07 f8       	bld	r0, 7
    36b2:	00 94       	com	r0
    36b4:	07 fa       	bst	r0, 7
    36b6:	db 01       	movw	r26, r22
    36b8:	b9 01       	movw	r22, r18
    36ba:	9d 01       	movw	r18, r26
    36bc:	dc 01       	movw	r26, r24
    36be:	ca 01       	movw	r24, r20
    36c0:	ad 01       	movw	r20, r26
    36c2:	ef 93       	push	r30
    36c4:	0e 94 c3 1b 	call	0x3786	; 0x3786 <__divsf3_pse>
    36c8:	0e 94 1e 1d 	call	0x3a3c	; 0x3a3c <__fp_round>
    36cc:	0e 94 73 1b 	call	0x36e6	; 0x36e6 <atan>
    36d0:	5f 91       	pop	r21
    36d2:	55 23       	and	r21, r21
    36d4:	39 f0       	breq	.+14     	; 0x36e4 <atan2+0x5e>
    36d6:	2b ed       	ldi	r18, 0xDB	; 219
    36d8:	3f e0       	ldi	r19, 0x0F	; 15
    36da:	49 e4       	ldi	r20, 0x49	; 73
    36dc:	50 fd       	sbrc	r21, 0
    36de:	49 ec       	ldi	r20, 0xC9	; 201
    36e0:	0c 94 c4 1a 	jmp	0x3588	; 0x3588 <__addsf3>
    36e4:	08 95       	ret

000036e6 <atan>:
    36e6:	df 93       	push	r29
    36e8:	dd 27       	eor	r29, r29
    36ea:	b9 2f       	mov	r27, r25
    36ec:	bf 77       	andi	r27, 0x7F	; 127
    36ee:	40 e8       	ldi	r20, 0x80	; 128
    36f0:	5f e3       	ldi	r21, 0x3F	; 63
    36f2:	16 16       	cp	r1, r22
    36f4:	17 06       	cpc	r1, r23
    36f6:	48 07       	cpc	r20, r24
    36f8:	5b 07       	cpc	r21, r27
    36fa:	18 f4       	brcc	.+6      	; 0x3702 <atan+0x1c>
    36fc:	d9 2f       	mov	r29, r25
    36fe:	0e 94 71 1d 	call	0x3ae2	; 0x3ae2 <inverse>
    3702:	9f 93       	push	r25
    3704:	8f 93       	push	r24
    3706:	7f 93       	push	r23
    3708:	6f 93       	push	r22
    370a:	0e 94 84 1e 	call	0x3d08	; 0x3d08 <square>
    370e:	e0 e7       	ldi	r30, 0x70	; 112
    3710:	f1 e0       	ldi	r31, 0x01	; 1
    3712:	0e 94 be 1c 	call	0x397c	; 0x397c <__fp_powser>
    3716:	0e 94 1e 1d 	call	0x3a3c	; 0x3a3c <__fp_round>
    371a:	2f 91       	pop	r18
    371c:	3f 91       	pop	r19
    371e:	4f 91       	pop	r20
    3720:	5f 91       	pop	r21
    3722:	0e 94 8c 1d 	call	0x3b18	; 0x3b18 <__mulsf3x>
    3726:	dd 23       	and	r29, r29
    3728:	51 f0       	breq	.+20     	; 0x373e <atan+0x58>
    372a:	90 58       	subi	r25, 0x80	; 128
    372c:	a2 ea       	ldi	r26, 0xA2	; 162
    372e:	2a ed       	ldi	r18, 0xDA	; 218
    3730:	3f e0       	ldi	r19, 0x0F	; 15
    3732:	49 ec       	ldi	r20, 0xC9	; 201
    3734:	5f e3       	ldi	r21, 0x3F	; 63
    3736:	d0 78       	andi	r29, 0x80	; 128
    3738:	5d 27       	eor	r21, r29
    373a:	0e 94 db 1a 	call	0x35b6	; 0x35b6 <__addsf3x>
    373e:	df 91       	pop	r29
    3740:	0c 94 1e 1d 	jmp	0x3a3c	; 0x3a3c <__fp_round>

00003744 <__cmpsf2>:
    3744:	0e 94 91 1c 	call	0x3922	; 0x3922 <__fp_cmp>
    3748:	08 f4       	brcc	.+2      	; 0x374c <__cmpsf2+0x8>
    374a:	81 e0       	ldi	r24, 0x01	; 1
    374c:	08 95       	ret

0000374e <cos>:
    374e:	0e 94 f5 1c 	call	0x39ea	; 0x39ea <__fp_rempio2>
    3752:	e3 95       	inc	r30
    3754:	0c 94 2f 1d 	jmp	0x3a5e	; 0x3a5e <__fp_sinus>

00003758 <__divsf3>:
    3758:	0e 94 c0 1b 	call	0x3780	; 0x3780 <__divsf3x>
    375c:	0c 94 1e 1d 	jmp	0x3a3c	; 0x3a3c <__fp_round>
    3760:	0e 94 ec 1c 	call	0x39d8	; 0x39d8 <__fp_pscB>
    3764:	58 f0       	brcs	.+22     	; 0x377c <__divsf3+0x24>
    3766:	0e 94 e5 1c 	call	0x39ca	; 0x39ca <__fp_pscA>
    376a:	40 f0       	brcs	.+16     	; 0x377c <__divsf3+0x24>
    376c:	29 f4       	brne	.+10     	; 0x3778 <__divsf3+0x20>
    376e:	5f 3f       	cpi	r21, 0xFF	; 255
    3770:	29 f0       	breq	.+10     	; 0x377c <__divsf3+0x24>
    3772:	0c 94 b5 1c 	jmp	0x396a	; 0x396a <__fp_inf>
    3776:	51 11       	cpse	r21, r1
    3778:	0c 94 66 1d 	jmp	0x3acc	; 0x3acc <__fp_szero>
    377c:	0c 94 bb 1c 	jmp	0x3976	; 0x3976 <__fp_nan>

00003780 <__divsf3x>:
    3780:	0e 94 43 1d 	call	0x3a86	; 0x3a86 <__fp_split3>
    3784:	68 f3       	brcs	.-38     	; 0x3760 <__divsf3+0x8>

00003786 <__divsf3_pse>:
    3786:	99 23       	and	r25, r25
    3788:	b1 f3       	breq	.-20     	; 0x3776 <__divsf3+0x1e>
    378a:	55 23       	and	r21, r21
    378c:	91 f3       	breq	.-28     	; 0x3772 <__divsf3+0x1a>
    378e:	95 1b       	sub	r25, r21
    3790:	55 0b       	sbc	r21, r21
    3792:	bb 27       	eor	r27, r27
    3794:	aa 27       	eor	r26, r26
    3796:	62 17       	cp	r22, r18
    3798:	73 07       	cpc	r23, r19
    379a:	84 07       	cpc	r24, r20
    379c:	38 f0       	brcs	.+14     	; 0x37ac <__divsf3_pse+0x26>
    379e:	9f 5f       	subi	r25, 0xFF	; 255
    37a0:	5f 4f       	sbci	r21, 0xFF	; 255
    37a2:	22 0f       	add	r18, r18
    37a4:	33 1f       	adc	r19, r19
    37a6:	44 1f       	adc	r20, r20
    37a8:	aa 1f       	adc	r26, r26
    37aa:	a9 f3       	breq	.-22     	; 0x3796 <__divsf3_pse+0x10>
    37ac:	35 d0       	rcall	.+106    	; 0x3818 <__divsf3_pse+0x92>
    37ae:	0e 2e       	mov	r0, r30
    37b0:	3a f0       	brmi	.+14     	; 0x37c0 <__divsf3_pse+0x3a>
    37b2:	e0 e8       	ldi	r30, 0x80	; 128
    37b4:	32 d0       	rcall	.+100    	; 0x381a <__divsf3_pse+0x94>
    37b6:	91 50       	subi	r25, 0x01	; 1
    37b8:	50 40       	sbci	r21, 0x00	; 0
    37ba:	e6 95       	lsr	r30
    37bc:	00 1c       	adc	r0, r0
    37be:	ca f7       	brpl	.-14     	; 0x37b2 <__divsf3_pse+0x2c>
    37c0:	2b d0       	rcall	.+86     	; 0x3818 <__divsf3_pse+0x92>
    37c2:	fe 2f       	mov	r31, r30
    37c4:	29 d0       	rcall	.+82     	; 0x3818 <__divsf3_pse+0x92>
    37c6:	66 0f       	add	r22, r22
    37c8:	77 1f       	adc	r23, r23
    37ca:	88 1f       	adc	r24, r24
    37cc:	bb 1f       	adc	r27, r27
    37ce:	26 17       	cp	r18, r22
    37d0:	37 07       	cpc	r19, r23
    37d2:	48 07       	cpc	r20, r24
    37d4:	ab 07       	cpc	r26, r27
    37d6:	b0 e8       	ldi	r27, 0x80	; 128
    37d8:	09 f0       	breq	.+2      	; 0x37dc <__divsf3_pse+0x56>
    37da:	bb 0b       	sbc	r27, r27
    37dc:	80 2d       	mov	r24, r0
    37de:	bf 01       	movw	r22, r30
    37e0:	ff 27       	eor	r31, r31
    37e2:	93 58       	subi	r25, 0x83	; 131
    37e4:	5f 4f       	sbci	r21, 0xFF	; 255
    37e6:	3a f0       	brmi	.+14     	; 0x37f6 <__divsf3_pse+0x70>
    37e8:	9e 3f       	cpi	r25, 0xFE	; 254
    37ea:	51 05       	cpc	r21, r1
    37ec:	78 f0       	brcs	.+30     	; 0x380c <__divsf3_pse+0x86>
    37ee:	0c 94 b5 1c 	jmp	0x396a	; 0x396a <__fp_inf>
    37f2:	0c 94 66 1d 	jmp	0x3acc	; 0x3acc <__fp_szero>
    37f6:	5f 3f       	cpi	r21, 0xFF	; 255
    37f8:	e4 f3       	brlt	.-8      	; 0x37f2 <__divsf3_pse+0x6c>
    37fa:	98 3e       	cpi	r25, 0xE8	; 232
    37fc:	d4 f3       	brlt	.-12     	; 0x37f2 <__divsf3_pse+0x6c>
    37fe:	86 95       	lsr	r24
    3800:	77 95       	ror	r23
    3802:	67 95       	ror	r22
    3804:	b7 95       	ror	r27
    3806:	f7 95       	ror	r31
    3808:	9f 5f       	subi	r25, 0xFF	; 255
    380a:	c9 f7       	brne	.-14     	; 0x37fe <__divsf3_pse+0x78>
    380c:	88 0f       	add	r24, r24
    380e:	91 1d       	adc	r25, r1
    3810:	96 95       	lsr	r25
    3812:	87 95       	ror	r24
    3814:	97 f9       	bld	r25, 7
    3816:	08 95       	ret
    3818:	e1 e0       	ldi	r30, 0x01	; 1
    381a:	66 0f       	add	r22, r22
    381c:	77 1f       	adc	r23, r23
    381e:	88 1f       	adc	r24, r24
    3820:	bb 1f       	adc	r27, r27
    3822:	62 17       	cp	r22, r18
    3824:	73 07       	cpc	r23, r19
    3826:	84 07       	cpc	r24, r20
    3828:	ba 07       	cpc	r27, r26
    382a:	20 f0       	brcs	.+8      	; 0x3834 <__divsf3_pse+0xae>
    382c:	62 1b       	sub	r22, r18
    382e:	73 0b       	sbc	r23, r19
    3830:	84 0b       	sbc	r24, r20
    3832:	ba 0b       	sbc	r27, r26
    3834:	ee 1f       	adc	r30, r30
    3836:	88 f7       	brcc	.-30     	; 0x381a <__divsf3_pse+0x94>
    3838:	e0 95       	com	r30
    383a:	08 95       	ret

0000383c <__fixsfsi>:
    383c:	0e 94 25 1c 	call	0x384a	; 0x384a <__fixunssfsi>
    3840:	68 94       	set
    3842:	b1 11       	cpse	r27, r1
    3844:	0c 94 66 1d 	jmp	0x3acc	; 0x3acc <__fp_szero>
    3848:	08 95       	ret

0000384a <__fixunssfsi>:
    384a:	0e 94 4b 1d 	call	0x3a96	; 0x3a96 <__fp_splitA>
    384e:	88 f0       	brcs	.+34     	; 0x3872 <__fixunssfsi+0x28>
    3850:	9f 57       	subi	r25, 0x7F	; 127
    3852:	98 f0       	brcs	.+38     	; 0x387a <__fixunssfsi+0x30>
    3854:	b9 2f       	mov	r27, r25
    3856:	99 27       	eor	r25, r25
    3858:	b7 51       	subi	r27, 0x17	; 23
    385a:	b0 f0       	brcs	.+44     	; 0x3888 <__fixunssfsi+0x3e>
    385c:	e1 f0       	breq	.+56     	; 0x3896 <__fixunssfsi+0x4c>
    385e:	66 0f       	add	r22, r22
    3860:	77 1f       	adc	r23, r23
    3862:	88 1f       	adc	r24, r24
    3864:	99 1f       	adc	r25, r25
    3866:	1a f0       	brmi	.+6      	; 0x386e <__fixunssfsi+0x24>
    3868:	ba 95       	dec	r27
    386a:	c9 f7       	brne	.-14     	; 0x385e <__fixunssfsi+0x14>
    386c:	14 c0       	rjmp	.+40     	; 0x3896 <__fixunssfsi+0x4c>
    386e:	b1 30       	cpi	r27, 0x01	; 1
    3870:	91 f0       	breq	.+36     	; 0x3896 <__fixunssfsi+0x4c>
    3872:	0e 94 65 1d 	call	0x3aca	; 0x3aca <__fp_zero>
    3876:	b1 e0       	ldi	r27, 0x01	; 1
    3878:	08 95       	ret
    387a:	0c 94 65 1d 	jmp	0x3aca	; 0x3aca <__fp_zero>
    387e:	67 2f       	mov	r22, r23
    3880:	78 2f       	mov	r23, r24
    3882:	88 27       	eor	r24, r24
    3884:	b8 5f       	subi	r27, 0xF8	; 248
    3886:	39 f0       	breq	.+14     	; 0x3896 <__fixunssfsi+0x4c>
    3888:	b9 3f       	cpi	r27, 0xF9	; 249
    388a:	cc f3       	brlt	.-14     	; 0x387e <__fixunssfsi+0x34>
    388c:	86 95       	lsr	r24
    388e:	77 95       	ror	r23
    3890:	67 95       	ror	r22
    3892:	b3 95       	inc	r27
    3894:	d9 f7       	brne	.-10     	; 0x388c <__fixunssfsi+0x42>
    3896:	3e f4       	brtc	.+14     	; 0x38a6 <__fixunssfsi+0x5c>
    3898:	90 95       	com	r25
    389a:	80 95       	com	r24
    389c:	70 95       	com	r23
    389e:	61 95       	neg	r22
    38a0:	7f 4f       	sbci	r23, 0xFF	; 255
    38a2:	8f 4f       	sbci	r24, 0xFF	; 255
    38a4:	9f 4f       	sbci	r25, 0xFF	; 255
    38a6:	08 95       	ret

000038a8 <__floatunsisf>:
    38a8:	e8 94       	clt
    38aa:	09 c0       	rjmp	.+18     	; 0x38be <__floatsisf+0x12>

000038ac <__floatsisf>:
    38ac:	97 fb       	bst	r25, 7
    38ae:	3e f4       	brtc	.+14     	; 0x38be <__floatsisf+0x12>
    38b0:	90 95       	com	r25
    38b2:	80 95       	com	r24
    38b4:	70 95       	com	r23
    38b6:	61 95       	neg	r22
    38b8:	7f 4f       	sbci	r23, 0xFF	; 255
    38ba:	8f 4f       	sbci	r24, 0xFF	; 255
    38bc:	9f 4f       	sbci	r25, 0xFF	; 255
    38be:	99 23       	and	r25, r25
    38c0:	a9 f0       	breq	.+42     	; 0x38ec <__floatsisf+0x40>
    38c2:	f9 2f       	mov	r31, r25
    38c4:	96 e9       	ldi	r25, 0x96	; 150
    38c6:	bb 27       	eor	r27, r27
    38c8:	93 95       	inc	r25
    38ca:	f6 95       	lsr	r31
    38cc:	87 95       	ror	r24
    38ce:	77 95       	ror	r23
    38d0:	67 95       	ror	r22
    38d2:	b7 95       	ror	r27
    38d4:	f1 11       	cpse	r31, r1
    38d6:	f8 cf       	rjmp	.-16     	; 0x38c8 <__floatsisf+0x1c>
    38d8:	fa f4       	brpl	.+62     	; 0x3918 <__floatsisf+0x6c>
    38da:	bb 0f       	add	r27, r27
    38dc:	11 f4       	brne	.+4      	; 0x38e2 <__floatsisf+0x36>
    38de:	60 ff       	sbrs	r22, 0
    38e0:	1b c0       	rjmp	.+54     	; 0x3918 <__floatsisf+0x6c>
    38e2:	6f 5f       	subi	r22, 0xFF	; 255
    38e4:	7f 4f       	sbci	r23, 0xFF	; 255
    38e6:	8f 4f       	sbci	r24, 0xFF	; 255
    38e8:	9f 4f       	sbci	r25, 0xFF	; 255
    38ea:	16 c0       	rjmp	.+44     	; 0x3918 <__floatsisf+0x6c>
    38ec:	88 23       	and	r24, r24
    38ee:	11 f0       	breq	.+4      	; 0x38f4 <__floatsisf+0x48>
    38f0:	96 e9       	ldi	r25, 0x96	; 150
    38f2:	11 c0       	rjmp	.+34     	; 0x3916 <__floatsisf+0x6a>
    38f4:	77 23       	and	r23, r23
    38f6:	21 f0       	breq	.+8      	; 0x3900 <__floatsisf+0x54>
    38f8:	9e e8       	ldi	r25, 0x8E	; 142
    38fa:	87 2f       	mov	r24, r23
    38fc:	76 2f       	mov	r23, r22
    38fe:	05 c0       	rjmp	.+10     	; 0x390a <__floatsisf+0x5e>
    3900:	66 23       	and	r22, r22
    3902:	71 f0       	breq	.+28     	; 0x3920 <__floatsisf+0x74>
    3904:	96 e8       	ldi	r25, 0x86	; 134
    3906:	86 2f       	mov	r24, r22
    3908:	70 e0       	ldi	r23, 0x00	; 0
    390a:	60 e0       	ldi	r22, 0x00	; 0
    390c:	2a f0       	brmi	.+10     	; 0x3918 <__floatsisf+0x6c>
    390e:	9a 95       	dec	r25
    3910:	66 0f       	add	r22, r22
    3912:	77 1f       	adc	r23, r23
    3914:	88 1f       	adc	r24, r24
    3916:	da f7       	brpl	.-10     	; 0x390e <__floatsisf+0x62>
    3918:	88 0f       	add	r24, r24
    391a:	96 95       	lsr	r25
    391c:	87 95       	ror	r24
    391e:	97 f9       	bld	r25, 7
    3920:	08 95       	ret

00003922 <__fp_cmp>:
    3922:	99 0f       	add	r25, r25
    3924:	00 08       	sbc	r0, r0
    3926:	55 0f       	add	r21, r21
    3928:	aa 0b       	sbc	r26, r26
    392a:	e0 e8       	ldi	r30, 0x80	; 128
    392c:	fe ef       	ldi	r31, 0xFE	; 254
    392e:	16 16       	cp	r1, r22
    3930:	17 06       	cpc	r1, r23
    3932:	e8 07       	cpc	r30, r24
    3934:	f9 07       	cpc	r31, r25
    3936:	c0 f0       	brcs	.+48     	; 0x3968 <__fp_cmp+0x46>
    3938:	12 16       	cp	r1, r18
    393a:	13 06       	cpc	r1, r19
    393c:	e4 07       	cpc	r30, r20
    393e:	f5 07       	cpc	r31, r21
    3940:	98 f0       	brcs	.+38     	; 0x3968 <__fp_cmp+0x46>
    3942:	62 1b       	sub	r22, r18
    3944:	73 0b       	sbc	r23, r19
    3946:	84 0b       	sbc	r24, r20
    3948:	95 0b       	sbc	r25, r21
    394a:	39 f4       	brne	.+14     	; 0x395a <__fp_cmp+0x38>
    394c:	0a 26       	eor	r0, r26
    394e:	61 f0       	breq	.+24     	; 0x3968 <__fp_cmp+0x46>
    3950:	23 2b       	or	r18, r19
    3952:	24 2b       	or	r18, r20
    3954:	25 2b       	or	r18, r21
    3956:	21 f4       	brne	.+8      	; 0x3960 <__fp_cmp+0x3e>
    3958:	08 95       	ret
    395a:	0a 26       	eor	r0, r26
    395c:	09 f4       	brne	.+2      	; 0x3960 <__fp_cmp+0x3e>
    395e:	a1 40       	sbci	r26, 0x01	; 1
    3960:	a6 95       	lsr	r26
    3962:	8f ef       	ldi	r24, 0xFF	; 255
    3964:	81 1d       	adc	r24, r1
    3966:	81 1d       	adc	r24, r1
    3968:	08 95       	ret

0000396a <__fp_inf>:
    396a:	97 f9       	bld	r25, 7
    396c:	9f 67       	ori	r25, 0x7F	; 127
    396e:	80 e8       	ldi	r24, 0x80	; 128
    3970:	70 e0       	ldi	r23, 0x00	; 0
    3972:	60 e0       	ldi	r22, 0x00	; 0
    3974:	08 95       	ret

00003976 <__fp_nan>:
    3976:	9f ef       	ldi	r25, 0xFF	; 255
    3978:	80 ec       	ldi	r24, 0xC0	; 192
    397a:	08 95       	ret

0000397c <__fp_powser>:
    397c:	df 93       	push	r29
    397e:	cf 93       	push	r28
    3980:	1f 93       	push	r17
    3982:	0f 93       	push	r16
    3984:	ff 92       	push	r15
    3986:	ef 92       	push	r14
    3988:	df 92       	push	r13
    398a:	7b 01       	movw	r14, r22
    398c:	8c 01       	movw	r16, r24
    398e:	68 94       	set
    3990:	06 c0       	rjmp	.+12     	; 0x399e <__fp_powser+0x22>
    3992:	da 2e       	mov	r13, r26
    3994:	ef 01       	movw	r28, r30
    3996:	0e 94 8c 1d 	call	0x3b18	; 0x3b18 <__mulsf3x>
    399a:	fe 01       	movw	r30, r28
    399c:	e8 94       	clt
    399e:	a5 91       	lpm	r26, Z+
    39a0:	25 91       	lpm	r18, Z+
    39a2:	35 91       	lpm	r19, Z+
    39a4:	45 91       	lpm	r20, Z+
    39a6:	55 91       	lpm	r21, Z+
    39a8:	a6 f3       	brts	.-24     	; 0x3992 <__fp_powser+0x16>
    39aa:	ef 01       	movw	r28, r30
    39ac:	0e 94 db 1a 	call	0x35b6	; 0x35b6 <__addsf3x>
    39b0:	fe 01       	movw	r30, r28
    39b2:	97 01       	movw	r18, r14
    39b4:	a8 01       	movw	r20, r16
    39b6:	da 94       	dec	r13
    39b8:	69 f7       	brne	.-38     	; 0x3994 <__fp_powser+0x18>
    39ba:	df 90       	pop	r13
    39bc:	ef 90       	pop	r14
    39be:	ff 90       	pop	r15
    39c0:	0f 91       	pop	r16
    39c2:	1f 91       	pop	r17
    39c4:	cf 91       	pop	r28
    39c6:	df 91       	pop	r29
    39c8:	08 95       	ret

000039ca <__fp_pscA>:
    39ca:	00 24       	eor	r0, r0
    39cc:	0a 94       	dec	r0
    39ce:	16 16       	cp	r1, r22
    39d0:	17 06       	cpc	r1, r23
    39d2:	18 06       	cpc	r1, r24
    39d4:	09 06       	cpc	r0, r25
    39d6:	08 95       	ret

000039d8 <__fp_pscB>:
    39d8:	00 24       	eor	r0, r0
    39da:	0a 94       	dec	r0
    39dc:	12 16       	cp	r1, r18
    39de:	13 06       	cpc	r1, r19
    39e0:	14 06       	cpc	r1, r20
    39e2:	05 06       	cpc	r0, r21
    39e4:	08 95       	ret
    39e6:	0c 94 bb 1c 	jmp	0x3976	; 0x3976 <__fp_nan>

000039ea <__fp_rempio2>:
    39ea:	0e 94 4b 1d 	call	0x3a96	; 0x3a96 <__fp_splitA>
    39ee:	d8 f3       	brcs	.-10     	; 0x39e6 <__fp_pscB+0xe>
    39f0:	e8 94       	clt
    39f2:	e0 e0       	ldi	r30, 0x00	; 0
    39f4:	bb 27       	eor	r27, r27
    39f6:	9f 57       	subi	r25, 0x7F	; 127
    39f8:	f0 f0       	brcs	.+60     	; 0x3a36 <__fp_rempio2+0x4c>
    39fa:	2a ed       	ldi	r18, 0xDA	; 218
    39fc:	3f e0       	ldi	r19, 0x0F	; 15
    39fe:	49 ec       	ldi	r20, 0xC9	; 201
    3a00:	06 c0       	rjmp	.+12     	; 0x3a0e <__fp_rempio2+0x24>
    3a02:	ee 0f       	add	r30, r30
    3a04:	bb 0f       	add	r27, r27
    3a06:	66 1f       	adc	r22, r22
    3a08:	77 1f       	adc	r23, r23
    3a0a:	88 1f       	adc	r24, r24
    3a0c:	28 f0       	brcs	.+10     	; 0x3a18 <__fp_rempio2+0x2e>
    3a0e:	b2 3a       	cpi	r27, 0xA2	; 162
    3a10:	62 07       	cpc	r22, r18
    3a12:	73 07       	cpc	r23, r19
    3a14:	84 07       	cpc	r24, r20
    3a16:	28 f0       	brcs	.+10     	; 0x3a22 <__fp_rempio2+0x38>
    3a18:	b2 5a       	subi	r27, 0xA2	; 162
    3a1a:	62 0b       	sbc	r22, r18
    3a1c:	73 0b       	sbc	r23, r19
    3a1e:	84 0b       	sbc	r24, r20
    3a20:	e3 95       	inc	r30
    3a22:	9a 95       	dec	r25
    3a24:	72 f7       	brpl	.-36     	; 0x3a02 <__fp_rempio2+0x18>
    3a26:	80 38       	cpi	r24, 0x80	; 128
    3a28:	30 f4       	brcc	.+12     	; 0x3a36 <__fp_rempio2+0x4c>
    3a2a:	9a 95       	dec	r25
    3a2c:	bb 0f       	add	r27, r27
    3a2e:	66 1f       	adc	r22, r22
    3a30:	77 1f       	adc	r23, r23
    3a32:	88 1f       	adc	r24, r24
    3a34:	d2 f7       	brpl	.-12     	; 0x3a2a <__fp_rempio2+0x40>
    3a36:	90 48       	sbci	r25, 0x80	; 128
    3a38:	0c 94 ee 1e 	jmp	0x3ddc	; 0x3ddc <__fp_mpack_finite>

00003a3c <__fp_round>:
    3a3c:	09 2e       	mov	r0, r25
    3a3e:	03 94       	inc	r0
    3a40:	00 0c       	add	r0, r0
    3a42:	11 f4       	brne	.+4      	; 0x3a48 <__fp_round+0xc>
    3a44:	88 23       	and	r24, r24
    3a46:	52 f0       	brmi	.+20     	; 0x3a5c <__fp_round+0x20>
    3a48:	bb 0f       	add	r27, r27
    3a4a:	40 f4       	brcc	.+16     	; 0x3a5c <__fp_round+0x20>
    3a4c:	bf 2b       	or	r27, r31
    3a4e:	11 f4       	brne	.+4      	; 0x3a54 <__fp_round+0x18>
    3a50:	60 ff       	sbrs	r22, 0
    3a52:	04 c0       	rjmp	.+8      	; 0x3a5c <__fp_round+0x20>
    3a54:	6f 5f       	subi	r22, 0xFF	; 255
    3a56:	7f 4f       	sbci	r23, 0xFF	; 255
    3a58:	8f 4f       	sbci	r24, 0xFF	; 255
    3a5a:	9f 4f       	sbci	r25, 0xFF	; 255
    3a5c:	08 95       	ret

00003a5e <__fp_sinus>:
    3a5e:	ef 93       	push	r30
    3a60:	e0 ff       	sbrs	r30, 0
    3a62:	07 c0       	rjmp	.+14     	; 0x3a72 <__fp_sinus+0x14>
    3a64:	a2 ea       	ldi	r26, 0xA2	; 162
    3a66:	2a ed       	ldi	r18, 0xDA	; 218
    3a68:	3f e0       	ldi	r19, 0x0F	; 15
    3a6a:	49 ec       	ldi	r20, 0xC9	; 201
    3a6c:	5f eb       	ldi	r21, 0xBF	; 191
    3a6e:	0e 94 db 1a 	call	0x35b6	; 0x35b6 <__addsf3x>
    3a72:	0e 94 1e 1d 	call	0x3a3c	; 0x3a3c <__fp_round>
    3a76:	0f 90       	pop	r0
    3a78:	03 94       	inc	r0
    3a7a:	01 fc       	sbrc	r0, 1
    3a7c:	90 58       	subi	r25, 0x80	; 128
    3a7e:	ed e9       	ldi	r30, 0x9D	; 157
    3a80:	f1 e0       	ldi	r31, 0x01	; 1
    3a82:	0c 94 01 1f 	jmp	0x3e02	; 0x3e02 <__fp_powsodd>

00003a86 <__fp_split3>:
    3a86:	57 fd       	sbrc	r21, 7
    3a88:	90 58       	subi	r25, 0x80	; 128
    3a8a:	44 0f       	add	r20, r20
    3a8c:	55 1f       	adc	r21, r21
    3a8e:	59 f0       	breq	.+22     	; 0x3aa6 <__fp_splitA+0x10>
    3a90:	5f 3f       	cpi	r21, 0xFF	; 255
    3a92:	71 f0       	breq	.+28     	; 0x3ab0 <__fp_splitA+0x1a>
    3a94:	47 95       	ror	r20

00003a96 <__fp_splitA>:
    3a96:	88 0f       	add	r24, r24
    3a98:	97 fb       	bst	r25, 7
    3a9a:	99 1f       	adc	r25, r25
    3a9c:	61 f0       	breq	.+24     	; 0x3ab6 <__fp_splitA+0x20>
    3a9e:	9f 3f       	cpi	r25, 0xFF	; 255
    3aa0:	79 f0       	breq	.+30     	; 0x3ac0 <__fp_splitA+0x2a>
    3aa2:	87 95       	ror	r24
    3aa4:	08 95       	ret
    3aa6:	12 16       	cp	r1, r18
    3aa8:	13 06       	cpc	r1, r19
    3aaa:	14 06       	cpc	r1, r20
    3aac:	55 1f       	adc	r21, r21
    3aae:	f2 cf       	rjmp	.-28     	; 0x3a94 <__fp_split3+0xe>
    3ab0:	46 95       	lsr	r20
    3ab2:	f1 df       	rcall	.-30     	; 0x3a96 <__fp_splitA>
    3ab4:	08 c0       	rjmp	.+16     	; 0x3ac6 <__fp_splitA+0x30>
    3ab6:	16 16       	cp	r1, r22
    3ab8:	17 06       	cpc	r1, r23
    3aba:	18 06       	cpc	r1, r24
    3abc:	99 1f       	adc	r25, r25
    3abe:	f1 cf       	rjmp	.-30     	; 0x3aa2 <__fp_splitA+0xc>
    3ac0:	86 95       	lsr	r24
    3ac2:	71 05       	cpc	r23, r1
    3ac4:	61 05       	cpc	r22, r1
    3ac6:	08 94       	sec
    3ac8:	08 95       	ret

00003aca <__fp_zero>:
    3aca:	e8 94       	clt

00003acc <__fp_szero>:
    3acc:	bb 27       	eor	r27, r27
    3ace:	66 27       	eor	r22, r22
    3ad0:	77 27       	eor	r23, r23
    3ad2:	cb 01       	movw	r24, r22
    3ad4:	97 f9       	bld	r25, 7
    3ad6:	08 95       	ret

00003ad8 <__gesf2>:
    3ad8:	0e 94 91 1c 	call	0x3922	; 0x3922 <__fp_cmp>
    3adc:	08 f4       	brcc	.+2      	; 0x3ae0 <__gesf2+0x8>
    3ade:	8f ef       	ldi	r24, 0xFF	; 255
    3ae0:	08 95       	ret

00003ae2 <inverse>:
    3ae2:	9b 01       	movw	r18, r22
    3ae4:	ac 01       	movw	r20, r24
    3ae6:	60 e0       	ldi	r22, 0x00	; 0
    3ae8:	70 e0       	ldi	r23, 0x00	; 0
    3aea:	80 e8       	ldi	r24, 0x80	; 128
    3aec:	9f e3       	ldi	r25, 0x3F	; 63
    3aee:	0c 94 ac 1b 	jmp	0x3758	; 0x3758 <__divsf3>

00003af2 <__mulsf3>:
    3af2:	0e 94 8c 1d 	call	0x3b18	; 0x3b18 <__mulsf3x>
    3af6:	0c 94 1e 1d 	jmp	0x3a3c	; 0x3a3c <__fp_round>
    3afa:	0e 94 e5 1c 	call	0x39ca	; 0x39ca <__fp_pscA>
    3afe:	38 f0       	brcs	.+14     	; 0x3b0e <__mulsf3+0x1c>
    3b00:	0e 94 ec 1c 	call	0x39d8	; 0x39d8 <__fp_pscB>
    3b04:	20 f0       	brcs	.+8      	; 0x3b0e <__mulsf3+0x1c>
    3b06:	95 23       	and	r25, r21
    3b08:	11 f0       	breq	.+4      	; 0x3b0e <__mulsf3+0x1c>
    3b0a:	0c 94 b5 1c 	jmp	0x396a	; 0x396a <__fp_inf>
    3b0e:	0c 94 bb 1c 	jmp	0x3976	; 0x3976 <__fp_nan>
    3b12:	11 24       	eor	r1, r1
    3b14:	0c 94 66 1d 	jmp	0x3acc	; 0x3acc <__fp_szero>

00003b18 <__mulsf3x>:
    3b18:	0e 94 43 1d 	call	0x3a86	; 0x3a86 <__fp_split3>
    3b1c:	70 f3       	brcs	.-36     	; 0x3afa <__mulsf3+0x8>

00003b1e <__mulsf3_pse>:
    3b1e:	95 9f       	mul	r25, r21
    3b20:	c1 f3       	breq	.-16     	; 0x3b12 <__mulsf3+0x20>
    3b22:	95 0f       	add	r25, r21
    3b24:	50 e0       	ldi	r21, 0x00	; 0
    3b26:	55 1f       	adc	r21, r21
    3b28:	62 9f       	mul	r22, r18
    3b2a:	f0 01       	movw	r30, r0
    3b2c:	72 9f       	mul	r23, r18
    3b2e:	bb 27       	eor	r27, r27
    3b30:	f0 0d       	add	r31, r0
    3b32:	b1 1d       	adc	r27, r1
    3b34:	63 9f       	mul	r22, r19
    3b36:	aa 27       	eor	r26, r26
    3b38:	f0 0d       	add	r31, r0
    3b3a:	b1 1d       	adc	r27, r1
    3b3c:	aa 1f       	adc	r26, r26
    3b3e:	64 9f       	mul	r22, r20
    3b40:	66 27       	eor	r22, r22
    3b42:	b0 0d       	add	r27, r0
    3b44:	a1 1d       	adc	r26, r1
    3b46:	66 1f       	adc	r22, r22
    3b48:	82 9f       	mul	r24, r18
    3b4a:	22 27       	eor	r18, r18
    3b4c:	b0 0d       	add	r27, r0
    3b4e:	a1 1d       	adc	r26, r1
    3b50:	62 1f       	adc	r22, r18
    3b52:	73 9f       	mul	r23, r19
    3b54:	b0 0d       	add	r27, r0
    3b56:	a1 1d       	adc	r26, r1
    3b58:	62 1f       	adc	r22, r18
    3b5a:	83 9f       	mul	r24, r19
    3b5c:	a0 0d       	add	r26, r0
    3b5e:	61 1d       	adc	r22, r1
    3b60:	22 1f       	adc	r18, r18
    3b62:	74 9f       	mul	r23, r20
    3b64:	33 27       	eor	r19, r19
    3b66:	a0 0d       	add	r26, r0
    3b68:	61 1d       	adc	r22, r1
    3b6a:	23 1f       	adc	r18, r19
    3b6c:	84 9f       	mul	r24, r20
    3b6e:	60 0d       	add	r22, r0
    3b70:	21 1d       	adc	r18, r1
    3b72:	82 2f       	mov	r24, r18
    3b74:	76 2f       	mov	r23, r22
    3b76:	6a 2f       	mov	r22, r26
    3b78:	11 24       	eor	r1, r1
    3b7a:	9f 57       	subi	r25, 0x7F	; 127
    3b7c:	50 40       	sbci	r21, 0x00	; 0
    3b7e:	9a f0       	brmi	.+38     	; 0x3ba6 <__mulsf3_pse+0x88>
    3b80:	f1 f0       	breq	.+60     	; 0x3bbe <__mulsf3_pse+0xa0>
    3b82:	88 23       	and	r24, r24
    3b84:	4a f0       	brmi	.+18     	; 0x3b98 <__mulsf3_pse+0x7a>
    3b86:	ee 0f       	add	r30, r30
    3b88:	ff 1f       	adc	r31, r31
    3b8a:	bb 1f       	adc	r27, r27
    3b8c:	66 1f       	adc	r22, r22
    3b8e:	77 1f       	adc	r23, r23
    3b90:	88 1f       	adc	r24, r24
    3b92:	91 50       	subi	r25, 0x01	; 1
    3b94:	50 40       	sbci	r21, 0x00	; 0
    3b96:	a9 f7       	brne	.-22     	; 0x3b82 <__mulsf3_pse+0x64>
    3b98:	9e 3f       	cpi	r25, 0xFE	; 254
    3b9a:	51 05       	cpc	r21, r1
    3b9c:	80 f0       	brcs	.+32     	; 0x3bbe <__mulsf3_pse+0xa0>
    3b9e:	0c 94 b5 1c 	jmp	0x396a	; 0x396a <__fp_inf>
    3ba2:	0c 94 66 1d 	jmp	0x3acc	; 0x3acc <__fp_szero>
    3ba6:	5f 3f       	cpi	r21, 0xFF	; 255
    3ba8:	e4 f3       	brlt	.-8      	; 0x3ba2 <__mulsf3_pse+0x84>
    3baa:	98 3e       	cpi	r25, 0xE8	; 232
    3bac:	d4 f3       	brlt	.-12     	; 0x3ba2 <__mulsf3_pse+0x84>
    3bae:	86 95       	lsr	r24
    3bb0:	77 95       	ror	r23
    3bb2:	67 95       	ror	r22
    3bb4:	b7 95       	ror	r27
    3bb6:	f7 95       	ror	r31
    3bb8:	e7 95       	ror	r30
    3bba:	9f 5f       	subi	r25, 0xFF	; 255
    3bbc:	c1 f7       	brne	.-16     	; 0x3bae <__mulsf3_pse+0x90>
    3bbe:	fe 2b       	or	r31, r30
    3bc0:	88 0f       	add	r24, r24
    3bc2:	91 1d       	adc	r25, r1
    3bc4:	96 95       	lsr	r25
    3bc6:	87 95       	ror	r24
    3bc8:	97 f9       	bld	r25, 7
    3bca:	08 95       	ret

00003bcc <pow>:
    3bcc:	fa 01       	movw	r30, r20
    3bce:	ee 0f       	add	r30, r30
    3bd0:	ff 1f       	adc	r31, r31
    3bd2:	30 96       	adiw	r30, 0x00	; 0
    3bd4:	21 05       	cpc	r18, r1
    3bd6:	31 05       	cpc	r19, r1
    3bd8:	a1 f1       	breq	.+104    	; 0x3c42 <pow+0x76>
    3bda:	61 15       	cp	r22, r1
    3bdc:	71 05       	cpc	r23, r1
    3bde:	61 f4       	brne	.+24     	; 0x3bf8 <pow+0x2c>
    3be0:	80 38       	cpi	r24, 0x80	; 128
    3be2:	bf e3       	ldi	r27, 0x3F	; 63
    3be4:	9b 07       	cpc	r25, r27
    3be6:	49 f1       	breq	.+82     	; 0x3c3a <pow+0x6e>
    3be8:	68 94       	set
    3bea:	90 38       	cpi	r25, 0x80	; 128
    3bec:	81 05       	cpc	r24, r1
    3bee:	61 f0       	breq	.+24     	; 0x3c08 <pow+0x3c>
    3bf0:	80 38       	cpi	r24, 0x80	; 128
    3bf2:	bf ef       	ldi	r27, 0xFF	; 255
    3bf4:	9b 07       	cpc	r25, r27
    3bf6:	41 f0       	breq	.+16     	; 0x3c08 <pow+0x3c>
    3bf8:	99 23       	and	r25, r25
    3bfa:	4a f5       	brpl	.+82     	; 0x3c4e <pow+0x82>
    3bfc:	ff 3f       	cpi	r31, 0xFF	; 255
    3bfe:	e1 05       	cpc	r30, r1
    3c00:	31 05       	cpc	r19, r1
    3c02:	21 05       	cpc	r18, r1
    3c04:	19 f1       	breq	.+70     	; 0x3c4c <pow+0x80>
    3c06:	e8 94       	clt
    3c08:	08 94       	sec
    3c0a:	e7 95       	ror	r30
    3c0c:	d9 01       	movw	r26, r18
    3c0e:	aa 23       	and	r26, r26
    3c10:	29 f4       	brne	.+10     	; 0x3c1c <pow+0x50>
    3c12:	ab 2f       	mov	r26, r27
    3c14:	be 2f       	mov	r27, r30
    3c16:	f8 5f       	subi	r31, 0xF8	; 248
    3c18:	d0 f3       	brcs	.-12     	; 0x3c0e <pow+0x42>
    3c1a:	10 c0       	rjmp	.+32     	; 0x3c3c <pow+0x70>
    3c1c:	ff 5f       	subi	r31, 0xFF	; 255
    3c1e:	70 f4       	brcc	.+28     	; 0x3c3c <pow+0x70>
    3c20:	a6 95       	lsr	r26
    3c22:	e0 f7       	brcc	.-8      	; 0x3c1c <pow+0x50>
    3c24:	f7 39       	cpi	r31, 0x97	; 151
    3c26:	50 f0       	brcs	.+20     	; 0x3c3c <pow+0x70>
    3c28:	19 f0       	breq	.+6      	; 0x3c30 <pow+0x64>
    3c2a:	ff 3a       	cpi	r31, 0xAF	; 175
    3c2c:	38 f4       	brcc	.+14     	; 0x3c3c <pow+0x70>
    3c2e:	9f 77       	andi	r25, 0x7F	; 127
    3c30:	9f 93       	push	r25
    3c32:	0d d0       	rcall	.+26     	; 0x3c4e <pow+0x82>
    3c34:	0f 90       	pop	r0
    3c36:	07 fc       	sbrc	r0, 7
    3c38:	90 58       	subi	r25, 0x80	; 128
    3c3a:	08 95       	ret
    3c3c:	46 f0       	brts	.+16     	; 0x3c4e <pow+0x82>
    3c3e:	0c 94 bb 1c 	jmp	0x3976	; 0x3976 <__fp_nan>
    3c42:	60 e0       	ldi	r22, 0x00	; 0
    3c44:	70 e0       	ldi	r23, 0x00	; 0
    3c46:	80 e8       	ldi	r24, 0x80	; 128
    3c48:	9f e3       	ldi	r25, 0x3F	; 63
    3c4a:	08 95       	ret
    3c4c:	4f e7       	ldi	r20, 0x7F	; 127
    3c4e:	9f 77       	andi	r25, 0x7F	; 127
    3c50:	5f 93       	push	r21
    3c52:	4f 93       	push	r20
    3c54:	3f 93       	push	r19
    3c56:	2f 93       	push	r18
    3c58:	0e 94 57 1f 	call	0x3eae	; 0x3eae <log>
    3c5c:	2f 91       	pop	r18
    3c5e:	3f 91       	pop	r19
    3c60:	4f 91       	pop	r20
    3c62:	5f 91       	pop	r21
    3c64:	0e 94 79 1d 	call	0x3af2	; 0x3af2 <__mulsf3>
    3c68:	0c 94 ba 1e 	jmp	0x3d74	; 0x3d74 <exp>

00003c6c <sin>:
    3c6c:	9f 93       	push	r25
    3c6e:	0e 94 f5 1c 	call	0x39ea	; 0x39ea <__fp_rempio2>
    3c72:	0f 90       	pop	r0
    3c74:	07 fc       	sbrc	r0, 7
    3c76:	ee 5f       	subi	r30, 0xFE	; 254
    3c78:	0c 94 2f 1d 	jmp	0x3a5e	; 0x3a5e <__fp_sinus>
    3c7c:	19 f4       	brne	.+6      	; 0x3c84 <sin+0x18>
    3c7e:	16 f4       	brtc	.+4      	; 0x3c84 <sin+0x18>
    3c80:	0c 94 bb 1c 	jmp	0x3976	; 0x3976 <__fp_nan>
    3c84:	0c 94 ec 1e 	jmp	0x3dd8	; 0x3dd8 <__fp_mpack>

00003c88 <sqrt>:
    3c88:	0e 94 4b 1d 	call	0x3a96	; 0x3a96 <__fp_splitA>
    3c8c:	b8 f3       	brcs	.-18     	; 0x3c7c <sin+0x10>
    3c8e:	99 23       	and	r25, r25
    3c90:	c9 f3       	breq	.-14     	; 0x3c84 <sin+0x18>
    3c92:	b6 f3       	brts	.-20     	; 0x3c80 <sin+0x14>
    3c94:	9f 57       	subi	r25, 0x7F	; 127
    3c96:	55 0b       	sbc	r21, r21
    3c98:	87 ff       	sbrs	r24, 7
    3c9a:	0e 94 fa 1e 	call	0x3df4	; 0x3df4 <__fp_norm2>
    3c9e:	00 24       	eor	r0, r0
    3ca0:	a0 e6       	ldi	r26, 0x60	; 96
    3ca2:	40 ea       	ldi	r20, 0xA0	; 160
    3ca4:	90 01       	movw	r18, r0
    3ca6:	80 58       	subi	r24, 0x80	; 128
    3ca8:	56 95       	lsr	r21
    3caa:	97 95       	ror	r25
    3cac:	28 f4       	brcc	.+10     	; 0x3cb8 <sqrt+0x30>
    3cae:	80 5c       	subi	r24, 0xC0	; 192
    3cb0:	66 0f       	add	r22, r22
    3cb2:	77 1f       	adc	r23, r23
    3cb4:	88 1f       	adc	r24, r24
    3cb6:	20 f0       	brcs	.+8      	; 0x3cc0 <sqrt+0x38>
    3cb8:	26 17       	cp	r18, r22
    3cba:	37 07       	cpc	r19, r23
    3cbc:	48 07       	cpc	r20, r24
    3cbe:	30 f4       	brcc	.+12     	; 0x3ccc <sqrt+0x44>
    3cc0:	62 1b       	sub	r22, r18
    3cc2:	73 0b       	sbc	r23, r19
    3cc4:	84 0b       	sbc	r24, r20
    3cc6:	20 29       	or	r18, r0
    3cc8:	31 29       	or	r19, r1
    3cca:	4a 2b       	or	r20, r26
    3ccc:	a6 95       	lsr	r26
    3cce:	17 94       	ror	r1
    3cd0:	07 94       	ror	r0
    3cd2:	20 25       	eor	r18, r0
    3cd4:	31 25       	eor	r19, r1
    3cd6:	4a 27       	eor	r20, r26
    3cd8:	58 f7       	brcc	.-42     	; 0x3cb0 <sqrt+0x28>
    3cda:	66 0f       	add	r22, r22
    3cdc:	77 1f       	adc	r23, r23
    3cde:	88 1f       	adc	r24, r24
    3ce0:	20 f0       	brcs	.+8      	; 0x3cea <sqrt+0x62>
    3ce2:	26 17       	cp	r18, r22
    3ce4:	37 07       	cpc	r19, r23
    3ce6:	48 07       	cpc	r20, r24
    3ce8:	30 f4       	brcc	.+12     	; 0x3cf6 <sqrt+0x6e>
    3cea:	62 0b       	sbc	r22, r18
    3cec:	73 0b       	sbc	r23, r19
    3cee:	84 0b       	sbc	r24, r20
    3cf0:	20 0d       	add	r18, r0
    3cf2:	31 1d       	adc	r19, r1
    3cf4:	41 1d       	adc	r20, r1
    3cf6:	a0 95       	com	r26
    3cf8:	81 f7       	brne	.-32     	; 0x3cda <sqrt+0x52>
    3cfa:	b9 01       	movw	r22, r18
    3cfc:	84 2f       	mov	r24, r20
    3cfe:	91 58       	subi	r25, 0x81	; 129
    3d00:	88 0f       	add	r24, r24
    3d02:	96 95       	lsr	r25
    3d04:	87 95       	ror	r24
    3d06:	08 95       	ret

00003d08 <square>:
    3d08:	9b 01       	movw	r18, r22
    3d0a:	ac 01       	movw	r20, r24
    3d0c:	0c 94 79 1d 	jmp	0x3af2	; 0x3af2 <__mulsf3>

00003d10 <tan>:
    3d10:	df 93       	push	r29
    3d12:	d9 2f       	mov	r29, r25
    3d14:	0e 94 f5 1c 	call	0x39ea	; 0x39ea <__fp_rempio2>
    3d18:	e6 95       	lsr	r30
    3d1a:	d7 95       	ror	r29
    3d1c:	2a ed       	ldi	r18, 0xDA	; 218
    3d1e:	3f e0       	ldi	r19, 0x0F	; 15
    3d20:	49 e4       	ldi	r20, 0x49	; 73
    3d22:	5f e3       	ldi	r21, 0x3F	; 63
    3d24:	b3 3a       	cpi	r27, 0xA3	; 163
    3d26:	62 07       	cpc	r22, r18
    3d28:	73 07       	cpc	r23, r19
    3d2a:	84 07       	cpc	r24, r20
    3d2c:	95 07       	cpc	r25, r21
    3d2e:	d7 95       	ror	r29
    3d30:	3a f0       	brmi	.+14     	; 0x3d40 <tan+0x30>
    3d32:	a2 ea       	ldi	r26, 0xA2	; 162
    3d34:	49 ec       	ldi	r20, 0xC9	; 201
    3d36:	90 68       	ori	r25, 0x80	; 128
    3d38:	0e 94 db 1a 	call	0x35b6	; 0x35b6 <__addsf3x>
    3d3c:	0e 94 1e 1d 	call	0x3a3c	; 0x3a3c <__fp_round>
    3d40:	eb eb       	ldi	r30, 0xBB	; 187
    3d42:	f1 e0       	ldi	r31, 0x01	; 1
    3d44:	0e 94 01 1f 	call	0x3e02	; 0x3e02 <__fp_powsodd>
    3d48:	dd 0f       	add	r29, r29
    3d4a:	13 f0       	brvs	.+4      	; 0x3d50 <tan+0x40>
    3d4c:	0e 94 71 1d 	call	0x3ae2	; 0x3ae2 <inverse>
    3d50:	dd 0f       	add	r29, r29
    3d52:	0b f4       	brvc	.+2      	; 0x3d56 <tan+0x46>
    3d54:	90 58       	subi	r25, 0x80	; 128
    3d56:	df 91       	pop	r29
    3d58:	08 95       	ret

00003d5a <__unordsf2>:
    3d5a:	0e 94 91 1c 	call	0x3922	; 0x3922 <__fp_cmp>
    3d5e:	88 0b       	sbc	r24, r24
    3d60:	99 0b       	sbc	r25, r25
    3d62:	08 95       	ret
    3d64:	29 f4       	brne	.+10     	; 0x3d70 <__unordsf2+0x16>
    3d66:	16 f0       	brts	.+4      	; 0x3d6c <__unordsf2+0x12>
    3d68:	0c 94 b5 1c 	jmp	0x396a	; 0x396a <__fp_inf>
    3d6c:	0c 94 65 1d 	jmp	0x3aca	; 0x3aca <__fp_zero>
    3d70:	0c 94 bb 1c 	jmp	0x3976	; 0x3976 <__fp_nan>

00003d74 <exp>:
    3d74:	0e 94 4b 1d 	call	0x3a96	; 0x3a96 <__fp_splitA>
    3d78:	a8 f3       	brcs	.-22     	; 0x3d64 <__unordsf2+0xa>
    3d7a:	96 38       	cpi	r25, 0x86	; 134
    3d7c:	a0 f7       	brcc	.-24     	; 0x3d66 <__unordsf2+0xc>
    3d7e:	07 f8       	bld	r0, 7
    3d80:	0f 92       	push	r0
    3d82:	e8 94       	clt
    3d84:	2b e3       	ldi	r18, 0x3B	; 59
    3d86:	3a ea       	ldi	r19, 0xAA	; 170
    3d88:	48 eb       	ldi	r20, 0xB8	; 184
    3d8a:	5f e7       	ldi	r21, 0x7F	; 127
    3d8c:	0e 94 8f 1d 	call	0x3b1e	; 0x3b1e <__mulsf3_pse>
    3d90:	0f 92       	push	r0
    3d92:	0f 92       	push	r0
    3d94:	0f 92       	push	r0
    3d96:	4d b7       	in	r20, 0x3d	; 61
    3d98:	5e b7       	in	r21, 0x3e	; 62
    3d9a:	0f 92       	push	r0
    3d9c:	0e 94 9f 1f 	call	0x3f3e	; 0x3f3e <modf>
    3da0:	ee ed       	ldi	r30, 0xDE	; 222
    3da2:	f1 e0       	ldi	r31, 0x01	; 1
    3da4:	0e 94 be 1c 	call	0x397c	; 0x397c <__fp_powser>
    3da8:	4f 91       	pop	r20
    3daa:	5f 91       	pop	r21
    3dac:	ef 91       	pop	r30
    3dae:	ff 91       	pop	r31
    3db0:	e5 95       	asr	r30
    3db2:	ee 1f       	adc	r30, r30
    3db4:	ff 1f       	adc	r31, r31
    3db6:	49 f0       	breq	.+18     	; 0x3dca <exp+0x56>
    3db8:	fe 57       	subi	r31, 0x7E	; 126
    3dba:	e0 68       	ori	r30, 0x80	; 128
    3dbc:	44 27       	eor	r20, r20
    3dbe:	ee 0f       	add	r30, r30
    3dc0:	44 1f       	adc	r20, r20
    3dc2:	fa 95       	dec	r31
    3dc4:	e1 f7       	brne	.-8      	; 0x3dbe <exp+0x4a>
    3dc6:	41 95       	neg	r20
    3dc8:	55 0b       	sbc	r21, r21
    3dca:	0e 94 19 1f 	call	0x3e32	; 0x3e32 <ldexp>
    3dce:	0f 90       	pop	r0
    3dd0:	07 fe       	sbrs	r0, 7
    3dd2:	0c 94 71 1d 	jmp	0x3ae2	; 0x3ae2 <inverse>
    3dd6:	08 95       	ret

00003dd8 <__fp_mpack>:
    3dd8:	9f 3f       	cpi	r25, 0xFF	; 255
    3dda:	31 f0       	breq	.+12     	; 0x3de8 <__fp_mpack_finite+0xc>

00003ddc <__fp_mpack_finite>:
    3ddc:	91 50       	subi	r25, 0x01	; 1
    3dde:	20 f4       	brcc	.+8      	; 0x3de8 <__fp_mpack_finite+0xc>
    3de0:	87 95       	ror	r24
    3de2:	77 95       	ror	r23
    3de4:	67 95       	ror	r22
    3de6:	b7 95       	ror	r27
    3de8:	88 0f       	add	r24, r24
    3dea:	91 1d       	adc	r25, r1
    3dec:	96 95       	lsr	r25
    3dee:	87 95       	ror	r24
    3df0:	97 f9       	bld	r25, 7
    3df2:	08 95       	ret

00003df4 <__fp_norm2>:
    3df4:	91 50       	subi	r25, 0x01	; 1
    3df6:	50 40       	sbci	r21, 0x00	; 0
    3df8:	66 0f       	add	r22, r22
    3dfa:	77 1f       	adc	r23, r23
    3dfc:	88 1f       	adc	r24, r24
    3dfe:	d2 f7       	brpl	.-12     	; 0x3df4 <__fp_norm2>
    3e00:	08 95       	ret

00003e02 <__fp_powsodd>:
    3e02:	9f 93       	push	r25
    3e04:	8f 93       	push	r24
    3e06:	7f 93       	push	r23
    3e08:	6f 93       	push	r22
    3e0a:	ff 93       	push	r31
    3e0c:	ef 93       	push	r30
    3e0e:	9b 01       	movw	r18, r22
    3e10:	ac 01       	movw	r20, r24
    3e12:	0e 94 79 1d 	call	0x3af2	; 0x3af2 <__mulsf3>
    3e16:	ef 91       	pop	r30
    3e18:	ff 91       	pop	r31
    3e1a:	0e 94 be 1c 	call	0x397c	; 0x397c <__fp_powser>
    3e1e:	2f 91       	pop	r18
    3e20:	3f 91       	pop	r19
    3e22:	4f 91       	pop	r20
    3e24:	5f 91       	pop	r21
    3e26:	0c 94 79 1d 	jmp	0x3af2	; 0x3af2 <__mulsf3>
    3e2a:	0c 94 b5 1c 	jmp	0x396a	; 0x396a <__fp_inf>
    3e2e:	0c 94 ec 1e 	jmp	0x3dd8	; 0x3dd8 <__fp_mpack>

00003e32 <ldexp>:
    3e32:	0e 94 4b 1d 	call	0x3a96	; 0x3a96 <__fp_splitA>
    3e36:	d8 f3       	brcs	.-10     	; 0x3e2e <__fp_powsodd+0x2c>
    3e38:	99 23       	and	r25, r25
    3e3a:	c9 f3       	breq	.-14     	; 0x3e2e <__fp_powsodd+0x2c>
    3e3c:	94 0f       	add	r25, r20
    3e3e:	51 1d       	adc	r21, r1
    3e40:	a3 f3       	brvs	.-24     	; 0x3e2a <__fp_powsodd+0x28>
    3e42:	91 50       	subi	r25, 0x01	; 1
    3e44:	50 40       	sbci	r21, 0x00	; 0
    3e46:	94 f0       	brlt	.+36     	; 0x3e6c <ldexp+0x3a>
    3e48:	59 f0       	breq	.+22     	; 0x3e60 <ldexp+0x2e>
    3e4a:	88 23       	and	r24, r24
    3e4c:	32 f0       	brmi	.+12     	; 0x3e5a <ldexp+0x28>
    3e4e:	66 0f       	add	r22, r22
    3e50:	77 1f       	adc	r23, r23
    3e52:	88 1f       	adc	r24, r24
    3e54:	91 50       	subi	r25, 0x01	; 1
    3e56:	50 40       	sbci	r21, 0x00	; 0
    3e58:	c1 f7       	brne	.-16     	; 0x3e4a <ldexp+0x18>
    3e5a:	9e 3f       	cpi	r25, 0xFE	; 254
    3e5c:	51 05       	cpc	r21, r1
    3e5e:	2c f7       	brge	.-54     	; 0x3e2a <__fp_powsodd+0x28>
    3e60:	88 0f       	add	r24, r24
    3e62:	91 1d       	adc	r25, r1
    3e64:	96 95       	lsr	r25
    3e66:	87 95       	ror	r24
    3e68:	97 f9       	bld	r25, 7
    3e6a:	08 95       	ret
    3e6c:	5f 3f       	cpi	r21, 0xFF	; 255
    3e6e:	ac f0       	brlt	.+42     	; 0x3e9a <ldexp+0x68>
    3e70:	98 3e       	cpi	r25, 0xE8	; 232
    3e72:	9c f0       	brlt	.+38     	; 0x3e9a <ldexp+0x68>
    3e74:	bb 27       	eor	r27, r27
    3e76:	86 95       	lsr	r24
    3e78:	77 95       	ror	r23
    3e7a:	67 95       	ror	r22
    3e7c:	b7 95       	ror	r27
    3e7e:	08 f4       	brcc	.+2      	; 0x3e82 <ldexp+0x50>
    3e80:	b1 60       	ori	r27, 0x01	; 1
    3e82:	93 95       	inc	r25
    3e84:	c1 f7       	brne	.-16     	; 0x3e76 <ldexp+0x44>
    3e86:	bb 0f       	add	r27, r27
    3e88:	58 f7       	brcc	.-42     	; 0x3e60 <ldexp+0x2e>
    3e8a:	11 f4       	brne	.+4      	; 0x3e90 <ldexp+0x5e>
    3e8c:	60 ff       	sbrs	r22, 0
    3e8e:	e8 cf       	rjmp	.-48     	; 0x3e60 <ldexp+0x2e>
    3e90:	6f 5f       	subi	r22, 0xFF	; 255
    3e92:	7f 4f       	sbci	r23, 0xFF	; 255
    3e94:	8f 4f       	sbci	r24, 0xFF	; 255
    3e96:	9f 4f       	sbci	r25, 0xFF	; 255
    3e98:	e3 cf       	rjmp	.-58     	; 0x3e60 <ldexp+0x2e>
    3e9a:	0c 94 66 1d 	jmp	0x3acc	; 0x3acc <__fp_szero>
    3e9e:	16 f0       	brts	.+4      	; 0x3ea4 <ldexp+0x72>
    3ea0:	0c 94 ec 1e 	jmp	0x3dd8	; 0x3dd8 <__fp_mpack>
    3ea4:	0c 94 bb 1c 	jmp	0x3976	; 0x3976 <__fp_nan>
    3ea8:	68 94       	set
    3eaa:	0c 94 b5 1c 	jmp	0x396a	; 0x396a <__fp_inf>

00003eae <log>:
    3eae:	0e 94 4b 1d 	call	0x3a96	; 0x3a96 <__fp_splitA>
    3eb2:	a8 f3       	brcs	.-22     	; 0x3e9e <ldexp+0x6c>
    3eb4:	99 23       	and	r25, r25
    3eb6:	c1 f3       	breq	.-16     	; 0x3ea8 <ldexp+0x76>
    3eb8:	ae f3       	brts	.-22     	; 0x3ea4 <ldexp+0x72>
    3eba:	df 93       	push	r29
    3ebc:	cf 93       	push	r28
    3ebe:	1f 93       	push	r17
    3ec0:	0f 93       	push	r16
    3ec2:	ff 92       	push	r15
    3ec4:	c9 2f       	mov	r28, r25
    3ec6:	dd 27       	eor	r29, r29
    3ec8:	88 23       	and	r24, r24
    3eca:	2a f0       	brmi	.+10     	; 0x3ed6 <log+0x28>
    3ecc:	21 97       	sbiw	r28, 0x01	; 1
    3ece:	66 0f       	add	r22, r22
    3ed0:	77 1f       	adc	r23, r23
    3ed2:	88 1f       	adc	r24, r24
    3ed4:	da f7       	brpl	.-10     	; 0x3ecc <log+0x1e>
    3ed6:	20 e0       	ldi	r18, 0x00	; 0
    3ed8:	30 e0       	ldi	r19, 0x00	; 0
    3eda:	40 e8       	ldi	r20, 0x80	; 128
    3edc:	5f eb       	ldi	r21, 0xBF	; 191
    3ede:	9f e3       	ldi	r25, 0x3F	; 63
    3ee0:	88 39       	cpi	r24, 0x98	; 152
    3ee2:	20 f0       	brcs	.+8      	; 0x3eec <log+0x3e>
    3ee4:	80 3e       	cpi	r24, 0xE0	; 224
    3ee6:	38 f0       	brcs	.+14     	; 0x3ef6 <log+0x48>
    3ee8:	21 96       	adiw	r28, 0x01	; 1
    3eea:	8f 77       	andi	r24, 0x7F	; 127
    3eec:	0e 94 c4 1a 	call	0x3588	; 0x3588 <__addsf3>
    3ef0:	e6 e0       	ldi	r30, 0x06	; 6
    3ef2:	f2 e0       	ldi	r31, 0x02	; 2
    3ef4:	04 c0       	rjmp	.+8      	; 0x3efe <log+0x50>
    3ef6:	0e 94 c4 1a 	call	0x3588	; 0x3588 <__addsf3>
    3efa:	e3 e3       	ldi	r30, 0x33	; 51
    3efc:	f2 e0       	ldi	r31, 0x02	; 2
    3efe:	0e 94 be 1c 	call	0x397c	; 0x397c <__fp_powser>
    3f02:	8b 01       	movw	r16, r22
    3f04:	be 01       	movw	r22, r28
    3f06:	ec 01       	movw	r28, r24
    3f08:	fb 2e       	mov	r15, r27
    3f0a:	6f 57       	subi	r22, 0x7F	; 127
    3f0c:	71 09       	sbc	r23, r1
    3f0e:	75 95       	asr	r23
    3f10:	77 1f       	adc	r23, r23
    3f12:	88 0b       	sbc	r24, r24
    3f14:	99 0b       	sbc	r25, r25
    3f16:	0e 94 56 1c 	call	0x38ac	; 0x38ac <__floatsisf>
    3f1a:	28 e1       	ldi	r18, 0x18	; 24
    3f1c:	32 e7       	ldi	r19, 0x72	; 114
    3f1e:	41 e3       	ldi	r20, 0x31	; 49
    3f20:	5f e3       	ldi	r21, 0x3F	; 63
    3f22:	0e 94 8c 1d 	call	0x3b18	; 0x3b18 <__mulsf3x>
    3f26:	af 2d       	mov	r26, r15
    3f28:	98 01       	movw	r18, r16
    3f2a:	ae 01       	movw	r20, r28
    3f2c:	ff 90       	pop	r15
    3f2e:	0f 91       	pop	r16
    3f30:	1f 91       	pop	r17
    3f32:	cf 91       	pop	r28
    3f34:	df 91       	pop	r29
    3f36:	0e 94 db 1a 	call	0x35b6	; 0x35b6 <__addsf3x>
    3f3a:	0c 94 1e 1d 	jmp	0x3a3c	; 0x3a3c <__fp_round>

00003f3e <modf>:
    3f3e:	fa 01       	movw	r30, r20
    3f40:	dc 01       	movw	r26, r24
    3f42:	aa 0f       	add	r26, r26
    3f44:	bb 1f       	adc	r27, r27
    3f46:	9b 01       	movw	r18, r22
    3f48:	ac 01       	movw	r20, r24
    3f4a:	bf 57       	subi	r27, 0x7F	; 127
    3f4c:	28 f4       	brcc	.+10     	; 0x3f58 <modf+0x1a>
    3f4e:	22 27       	eor	r18, r18
    3f50:	33 27       	eor	r19, r19
    3f52:	44 27       	eor	r20, r20
    3f54:	50 78       	andi	r21, 0x80	; 128
    3f56:	20 c0       	rjmp	.+64     	; 0x3f98 <modf+0x5a>
    3f58:	b7 51       	subi	r27, 0x17	; 23
    3f5a:	90 f4       	brcc	.+36     	; 0x3f80 <modf+0x42>
    3f5c:	ab 2f       	mov	r26, r27
    3f5e:	00 24       	eor	r0, r0
    3f60:	46 95       	lsr	r20
    3f62:	37 95       	ror	r19
    3f64:	27 95       	ror	r18
    3f66:	01 1c       	adc	r0, r1
    3f68:	a3 95       	inc	r26
    3f6a:	d2 f3       	brmi	.-12     	; 0x3f60 <modf+0x22>
    3f6c:	00 20       	and	r0, r0
    3f6e:	71 f0       	breq	.+28     	; 0x3f8c <modf+0x4e>
    3f70:	22 0f       	add	r18, r18
    3f72:	33 1f       	adc	r19, r19
    3f74:	44 1f       	adc	r20, r20
    3f76:	b3 95       	inc	r27
    3f78:	da f3       	brmi	.-10     	; 0x3f70 <modf+0x32>
    3f7a:	0e d0       	rcall	.+28     	; 0x3f98 <modf+0x5a>
    3f7c:	0c 94 c3 1a 	jmp	0x3586	; 0x3586 <__subsf3>
    3f80:	61 30       	cpi	r22, 0x01	; 1
    3f82:	71 05       	cpc	r23, r1
    3f84:	a0 e8       	ldi	r26, 0x80	; 128
    3f86:	8a 07       	cpc	r24, r26
    3f88:	b9 46       	sbci	r27, 0x69	; 105
    3f8a:	30 f4       	brcc	.+12     	; 0x3f98 <modf+0x5a>
    3f8c:	9b 01       	movw	r18, r22
    3f8e:	ac 01       	movw	r20, r24
    3f90:	66 27       	eor	r22, r22
    3f92:	77 27       	eor	r23, r23
    3f94:	88 27       	eor	r24, r24
    3f96:	90 78       	andi	r25, 0x80	; 128
    3f98:	30 96       	adiw	r30, 0x00	; 0
    3f9a:	21 f0       	breq	.+8      	; 0x3fa4 <modf+0x66>
    3f9c:	20 83       	st	Z, r18
    3f9e:	31 83       	std	Z+1, r19	; 0x01
    3fa0:	42 83       	std	Z+2, r20	; 0x02
    3fa2:	53 83       	std	Z+3, r21	; 0x03
    3fa4:	08 95       	ret

00003fa6 <vfprintf>:
    3fa6:	2f 92       	push	r2
    3fa8:	3f 92       	push	r3
    3faa:	4f 92       	push	r4
    3fac:	5f 92       	push	r5
    3fae:	6f 92       	push	r6
    3fb0:	7f 92       	push	r7
    3fb2:	8f 92       	push	r8
    3fb4:	9f 92       	push	r9
    3fb6:	af 92       	push	r10
    3fb8:	bf 92       	push	r11
    3fba:	cf 92       	push	r12
    3fbc:	df 92       	push	r13
    3fbe:	ef 92       	push	r14
    3fc0:	ff 92       	push	r15
    3fc2:	0f 93       	push	r16
    3fc4:	1f 93       	push	r17
    3fc6:	cf 93       	push	r28
    3fc8:	df 93       	push	r29
    3fca:	cd b7       	in	r28, 0x3d	; 61
    3fcc:	de b7       	in	r29, 0x3e	; 62
    3fce:	60 97       	sbiw	r28, 0x10	; 16
    3fd0:	cd bf       	out	0x3d, r28	; 61
    3fd2:	de bf       	out	0x3e, r29	; 62
    3fd4:	7c 01       	movw	r14, r24
    3fd6:	1b 01       	movw	r2, r22
    3fd8:	6a 01       	movw	r12, r20
    3fda:	fc 01       	movw	r30, r24
    3fdc:	16 82       	std	Z+6, r1	; 0x06
    3fde:	17 82       	std	Z+7, r1	; 0x07
    3fe0:	83 81       	ldd	r24, Z+3	; 0x03
    3fe2:	81 ff       	sbrs	r24, 1
    3fe4:	44 c3       	rjmp	.+1672   	; 0x466e <__DATA_REGION_LENGTH__+0x66e>
    3fe6:	9e 01       	movw	r18, r28
    3fe8:	2f 5f       	subi	r18, 0xFF	; 255
    3fea:	3f 4f       	sbci	r19, 0xFF	; 255
    3fec:	39 01       	movw	r6, r18
    3fee:	f7 01       	movw	r30, r14
    3ff0:	93 81       	ldd	r25, Z+3	; 0x03
    3ff2:	f1 01       	movw	r30, r2
    3ff4:	93 fd       	sbrc	r25, 3
    3ff6:	85 91       	lpm	r24, Z+
    3ff8:	93 ff       	sbrs	r25, 3
    3ffa:	81 91       	ld	r24, Z+
    3ffc:	1f 01       	movw	r2, r30
    3ffe:	88 23       	and	r24, r24
    4000:	09 f4       	brne	.+2      	; 0x4004 <__DATA_REGION_LENGTH__+0x4>
    4002:	31 c3       	rjmp	.+1634   	; 0x4666 <__DATA_REGION_LENGTH__+0x666>
    4004:	85 32       	cpi	r24, 0x25	; 37
    4006:	39 f4       	brne	.+14     	; 0x4016 <__DATA_REGION_LENGTH__+0x16>
    4008:	93 fd       	sbrc	r25, 3
    400a:	85 91       	lpm	r24, Z+
    400c:	93 ff       	sbrs	r25, 3
    400e:	81 91       	ld	r24, Z+
    4010:	1f 01       	movw	r2, r30
    4012:	85 32       	cpi	r24, 0x25	; 37
    4014:	39 f4       	brne	.+14     	; 0x4024 <__DATA_REGION_LENGTH__+0x24>
    4016:	b7 01       	movw	r22, r14
    4018:	90 e0       	ldi	r25, 0x00	; 0
    401a:	0e 94 d0 27 	call	0x4fa0	; 0x4fa0 <fputc>
    401e:	56 01       	movw	r10, r12
    4020:	65 01       	movw	r12, r10
    4022:	e5 cf       	rjmp	.-54     	; 0x3fee <vfprintf+0x48>
    4024:	10 e0       	ldi	r17, 0x00	; 0
    4026:	51 2c       	mov	r5, r1
    4028:	91 2c       	mov	r9, r1
    402a:	ff e1       	ldi	r31, 0x1F	; 31
    402c:	f9 15       	cp	r31, r9
    402e:	d8 f0       	brcs	.+54     	; 0x4066 <__DATA_REGION_LENGTH__+0x66>
    4030:	8b 32       	cpi	r24, 0x2B	; 43
    4032:	79 f0       	breq	.+30     	; 0x4052 <__DATA_REGION_LENGTH__+0x52>
    4034:	38 f4       	brcc	.+14     	; 0x4044 <__DATA_REGION_LENGTH__+0x44>
    4036:	80 32       	cpi	r24, 0x20	; 32
    4038:	79 f0       	breq	.+30     	; 0x4058 <__DATA_REGION_LENGTH__+0x58>
    403a:	83 32       	cpi	r24, 0x23	; 35
    403c:	a1 f4       	brne	.+40     	; 0x4066 <__DATA_REGION_LENGTH__+0x66>
    403e:	f9 2d       	mov	r31, r9
    4040:	f0 61       	ori	r31, 0x10	; 16
    4042:	2e c0       	rjmp	.+92     	; 0x40a0 <__DATA_REGION_LENGTH__+0xa0>
    4044:	8d 32       	cpi	r24, 0x2D	; 45
    4046:	61 f0       	breq	.+24     	; 0x4060 <__DATA_REGION_LENGTH__+0x60>
    4048:	80 33       	cpi	r24, 0x30	; 48
    404a:	69 f4       	brne	.+26     	; 0x4066 <__DATA_REGION_LENGTH__+0x66>
    404c:	29 2d       	mov	r18, r9
    404e:	21 60       	ori	r18, 0x01	; 1
    4050:	2d c0       	rjmp	.+90     	; 0x40ac <__DATA_REGION_LENGTH__+0xac>
    4052:	39 2d       	mov	r19, r9
    4054:	32 60       	ori	r19, 0x02	; 2
    4056:	93 2e       	mov	r9, r19
    4058:	89 2d       	mov	r24, r9
    405a:	84 60       	ori	r24, 0x04	; 4
    405c:	98 2e       	mov	r9, r24
    405e:	2a c0       	rjmp	.+84     	; 0x40b4 <__DATA_REGION_LENGTH__+0xb4>
    4060:	e9 2d       	mov	r30, r9
    4062:	e8 60       	ori	r30, 0x08	; 8
    4064:	15 c0       	rjmp	.+42     	; 0x4090 <__DATA_REGION_LENGTH__+0x90>
    4066:	97 fc       	sbrc	r9, 7
    4068:	2d c0       	rjmp	.+90     	; 0x40c4 <__DATA_REGION_LENGTH__+0xc4>
    406a:	20 ed       	ldi	r18, 0xD0	; 208
    406c:	28 0f       	add	r18, r24
    406e:	2a 30       	cpi	r18, 0x0A	; 10
    4070:	88 f4       	brcc	.+34     	; 0x4094 <__DATA_REGION_LENGTH__+0x94>
    4072:	96 fe       	sbrs	r9, 6
    4074:	06 c0       	rjmp	.+12     	; 0x4082 <__DATA_REGION_LENGTH__+0x82>
    4076:	3a e0       	ldi	r19, 0x0A	; 10
    4078:	13 9f       	mul	r17, r19
    407a:	20 0d       	add	r18, r0
    407c:	11 24       	eor	r1, r1
    407e:	12 2f       	mov	r17, r18
    4080:	19 c0       	rjmp	.+50     	; 0x40b4 <__DATA_REGION_LENGTH__+0xb4>
    4082:	8a e0       	ldi	r24, 0x0A	; 10
    4084:	58 9e       	mul	r5, r24
    4086:	20 0d       	add	r18, r0
    4088:	11 24       	eor	r1, r1
    408a:	52 2e       	mov	r5, r18
    408c:	e9 2d       	mov	r30, r9
    408e:	e0 62       	ori	r30, 0x20	; 32
    4090:	9e 2e       	mov	r9, r30
    4092:	10 c0       	rjmp	.+32     	; 0x40b4 <__DATA_REGION_LENGTH__+0xb4>
    4094:	8e 32       	cpi	r24, 0x2E	; 46
    4096:	31 f4       	brne	.+12     	; 0x40a4 <__DATA_REGION_LENGTH__+0xa4>
    4098:	96 fc       	sbrc	r9, 6
    409a:	e5 c2       	rjmp	.+1482   	; 0x4666 <__DATA_REGION_LENGTH__+0x666>
    409c:	f9 2d       	mov	r31, r9
    409e:	f0 64       	ori	r31, 0x40	; 64
    40a0:	9f 2e       	mov	r9, r31
    40a2:	08 c0       	rjmp	.+16     	; 0x40b4 <__DATA_REGION_LENGTH__+0xb4>
    40a4:	8c 36       	cpi	r24, 0x6C	; 108
    40a6:	21 f4       	brne	.+8      	; 0x40b0 <__DATA_REGION_LENGTH__+0xb0>
    40a8:	29 2d       	mov	r18, r9
    40aa:	20 68       	ori	r18, 0x80	; 128
    40ac:	92 2e       	mov	r9, r18
    40ae:	02 c0       	rjmp	.+4      	; 0x40b4 <__DATA_REGION_LENGTH__+0xb4>
    40b0:	88 36       	cpi	r24, 0x68	; 104
    40b2:	41 f4       	brne	.+16     	; 0x40c4 <__DATA_REGION_LENGTH__+0xc4>
    40b4:	f1 01       	movw	r30, r2
    40b6:	93 fd       	sbrc	r25, 3
    40b8:	85 91       	lpm	r24, Z+
    40ba:	93 ff       	sbrs	r25, 3
    40bc:	81 91       	ld	r24, Z+
    40be:	1f 01       	movw	r2, r30
    40c0:	81 11       	cpse	r24, r1
    40c2:	b3 cf       	rjmp	.-154    	; 0x402a <__DATA_REGION_LENGTH__+0x2a>
    40c4:	9b eb       	ldi	r25, 0xBB	; 187
    40c6:	98 0f       	add	r25, r24
    40c8:	93 30       	cpi	r25, 0x03	; 3
    40ca:	20 f4       	brcc	.+8      	; 0x40d4 <__DATA_REGION_LENGTH__+0xd4>
    40cc:	99 2d       	mov	r25, r9
    40ce:	90 61       	ori	r25, 0x10	; 16
    40d0:	80 5e       	subi	r24, 0xE0	; 224
    40d2:	07 c0       	rjmp	.+14     	; 0x40e2 <__DATA_REGION_LENGTH__+0xe2>
    40d4:	9b e9       	ldi	r25, 0x9B	; 155
    40d6:	98 0f       	add	r25, r24
    40d8:	93 30       	cpi	r25, 0x03	; 3
    40da:	08 f0       	brcs	.+2      	; 0x40de <__DATA_REGION_LENGTH__+0xde>
    40dc:	66 c1       	rjmp	.+716    	; 0x43aa <__DATA_REGION_LENGTH__+0x3aa>
    40de:	99 2d       	mov	r25, r9
    40e0:	9f 7e       	andi	r25, 0xEF	; 239
    40e2:	96 ff       	sbrs	r25, 6
    40e4:	16 e0       	ldi	r17, 0x06	; 6
    40e6:	9f 73       	andi	r25, 0x3F	; 63
    40e8:	99 2e       	mov	r9, r25
    40ea:	85 36       	cpi	r24, 0x65	; 101
    40ec:	19 f4       	brne	.+6      	; 0x40f4 <__DATA_REGION_LENGTH__+0xf4>
    40ee:	90 64       	ori	r25, 0x40	; 64
    40f0:	99 2e       	mov	r9, r25
    40f2:	08 c0       	rjmp	.+16     	; 0x4104 <__DATA_REGION_LENGTH__+0x104>
    40f4:	86 36       	cpi	r24, 0x66	; 102
    40f6:	21 f4       	brne	.+8      	; 0x4100 <__DATA_REGION_LENGTH__+0x100>
    40f8:	39 2f       	mov	r19, r25
    40fa:	30 68       	ori	r19, 0x80	; 128
    40fc:	93 2e       	mov	r9, r19
    40fe:	02 c0       	rjmp	.+4      	; 0x4104 <__DATA_REGION_LENGTH__+0x104>
    4100:	11 11       	cpse	r17, r1
    4102:	11 50       	subi	r17, 0x01	; 1
    4104:	97 fe       	sbrs	r9, 7
    4106:	07 c0       	rjmp	.+14     	; 0x4116 <__DATA_REGION_LENGTH__+0x116>
    4108:	1c 33       	cpi	r17, 0x3C	; 60
    410a:	50 f4       	brcc	.+20     	; 0x4120 <__DATA_REGION_LENGTH__+0x120>
    410c:	44 24       	eor	r4, r4
    410e:	43 94       	inc	r4
    4110:	41 0e       	add	r4, r17
    4112:	27 e0       	ldi	r18, 0x07	; 7
    4114:	0b c0       	rjmp	.+22     	; 0x412c <__DATA_REGION_LENGTH__+0x12c>
    4116:	18 30       	cpi	r17, 0x08	; 8
    4118:	38 f0       	brcs	.+14     	; 0x4128 <__DATA_REGION_LENGTH__+0x128>
    411a:	27 e0       	ldi	r18, 0x07	; 7
    411c:	17 e0       	ldi	r17, 0x07	; 7
    411e:	05 c0       	rjmp	.+10     	; 0x412a <__DATA_REGION_LENGTH__+0x12a>
    4120:	27 e0       	ldi	r18, 0x07	; 7
    4122:	9c e3       	ldi	r25, 0x3C	; 60
    4124:	49 2e       	mov	r4, r25
    4126:	02 c0       	rjmp	.+4      	; 0x412c <__DATA_REGION_LENGTH__+0x12c>
    4128:	21 2f       	mov	r18, r17
    412a:	41 2c       	mov	r4, r1
    412c:	56 01       	movw	r10, r12
    412e:	84 e0       	ldi	r24, 0x04	; 4
    4130:	a8 0e       	add	r10, r24
    4132:	b1 1c       	adc	r11, r1
    4134:	f6 01       	movw	r30, r12
    4136:	60 81       	ld	r22, Z
    4138:	71 81       	ldd	r23, Z+1	; 0x01
    413a:	82 81       	ldd	r24, Z+2	; 0x02
    413c:	93 81       	ldd	r25, Z+3	; 0x03
    413e:	04 2d       	mov	r16, r4
    4140:	a3 01       	movw	r20, r6
    4142:	0e 94 a4 26 	call	0x4d48	; 0x4d48 <__ftoa_engine>
    4146:	6c 01       	movw	r12, r24
    4148:	f9 81       	ldd	r31, Y+1	; 0x01
    414a:	fc 87       	std	Y+12, r31	; 0x0c
    414c:	f0 ff       	sbrs	r31, 0
    414e:	02 c0       	rjmp	.+4      	; 0x4154 <__DATA_REGION_LENGTH__+0x154>
    4150:	f3 ff       	sbrs	r31, 3
    4152:	06 c0       	rjmp	.+12     	; 0x4160 <__DATA_REGION_LENGTH__+0x160>
    4154:	91 fc       	sbrc	r9, 1
    4156:	06 c0       	rjmp	.+12     	; 0x4164 <__DATA_REGION_LENGTH__+0x164>
    4158:	92 fe       	sbrs	r9, 2
    415a:	06 c0       	rjmp	.+12     	; 0x4168 <__DATA_REGION_LENGTH__+0x168>
    415c:	00 e2       	ldi	r16, 0x20	; 32
    415e:	05 c0       	rjmp	.+10     	; 0x416a <__DATA_REGION_LENGTH__+0x16a>
    4160:	0d e2       	ldi	r16, 0x2D	; 45
    4162:	03 c0       	rjmp	.+6      	; 0x416a <__DATA_REGION_LENGTH__+0x16a>
    4164:	0b e2       	ldi	r16, 0x2B	; 43
    4166:	01 c0       	rjmp	.+2      	; 0x416a <__DATA_REGION_LENGTH__+0x16a>
    4168:	00 e0       	ldi	r16, 0x00	; 0
    416a:	8c 85       	ldd	r24, Y+12	; 0x0c
    416c:	8c 70       	andi	r24, 0x0C	; 12
    416e:	19 f0       	breq	.+6      	; 0x4176 <__DATA_REGION_LENGTH__+0x176>
    4170:	01 11       	cpse	r16, r1
    4172:	5a c2       	rjmp	.+1204   	; 0x4628 <__DATA_REGION_LENGTH__+0x628>
    4174:	9b c2       	rjmp	.+1334   	; 0x46ac <__DATA_REGION_LENGTH__+0x6ac>
    4176:	97 fe       	sbrs	r9, 7
    4178:	10 c0       	rjmp	.+32     	; 0x419a <__DATA_REGION_LENGTH__+0x19a>
    417a:	4c 0c       	add	r4, r12
    417c:	fc 85       	ldd	r31, Y+12	; 0x0c
    417e:	f4 ff       	sbrs	r31, 4
    4180:	04 c0       	rjmp	.+8      	; 0x418a <__DATA_REGION_LENGTH__+0x18a>
    4182:	8a 81       	ldd	r24, Y+2	; 0x02
    4184:	81 33       	cpi	r24, 0x31	; 49
    4186:	09 f4       	brne	.+2      	; 0x418a <__DATA_REGION_LENGTH__+0x18a>
    4188:	4a 94       	dec	r4
    418a:	14 14       	cp	r1, r4
    418c:	74 f5       	brge	.+92     	; 0x41ea <__DATA_REGION_LENGTH__+0x1ea>
    418e:	28 e0       	ldi	r18, 0x08	; 8
    4190:	24 15       	cp	r18, r4
    4192:	78 f5       	brcc	.+94     	; 0x41f2 <__DATA_REGION_LENGTH__+0x1f2>
    4194:	88 e0       	ldi	r24, 0x08	; 8
    4196:	48 2e       	mov	r4, r24
    4198:	2c c0       	rjmp	.+88     	; 0x41f2 <__DATA_REGION_LENGTH__+0x1f2>
    419a:	96 fc       	sbrc	r9, 6
    419c:	2a c0       	rjmp	.+84     	; 0x41f2 <__DATA_REGION_LENGTH__+0x1f2>
    419e:	81 2f       	mov	r24, r17
    41a0:	90 e0       	ldi	r25, 0x00	; 0
    41a2:	8c 15       	cp	r24, r12
    41a4:	9d 05       	cpc	r25, r13
    41a6:	9c f0       	brlt	.+38     	; 0x41ce <__DATA_REGION_LENGTH__+0x1ce>
    41a8:	3c ef       	ldi	r19, 0xFC	; 252
    41aa:	c3 16       	cp	r12, r19
    41ac:	3f ef       	ldi	r19, 0xFF	; 255
    41ae:	d3 06       	cpc	r13, r19
    41b0:	74 f0       	brlt	.+28     	; 0x41ce <__DATA_REGION_LENGTH__+0x1ce>
    41b2:	89 2d       	mov	r24, r9
    41b4:	80 68       	ori	r24, 0x80	; 128
    41b6:	98 2e       	mov	r9, r24
    41b8:	0a c0       	rjmp	.+20     	; 0x41ce <__DATA_REGION_LENGTH__+0x1ce>
    41ba:	e2 e0       	ldi	r30, 0x02	; 2
    41bc:	f0 e0       	ldi	r31, 0x00	; 0
    41be:	ec 0f       	add	r30, r28
    41c0:	fd 1f       	adc	r31, r29
    41c2:	e1 0f       	add	r30, r17
    41c4:	f1 1d       	adc	r31, r1
    41c6:	80 81       	ld	r24, Z
    41c8:	80 33       	cpi	r24, 0x30	; 48
    41ca:	19 f4       	brne	.+6      	; 0x41d2 <__DATA_REGION_LENGTH__+0x1d2>
    41cc:	11 50       	subi	r17, 0x01	; 1
    41ce:	11 11       	cpse	r17, r1
    41d0:	f4 cf       	rjmp	.-24     	; 0x41ba <__DATA_REGION_LENGTH__+0x1ba>
    41d2:	97 fe       	sbrs	r9, 7
    41d4:	0e c0       	rjmp	.+28     	; 0x41f2 <__DATA_REGION_LENGTH__+0x1f2>
    41d6:	44 24       	eor	r4, r4
    41d8:	43 94       	inc	r4
    41da:	41 0e       	add	r4, r17
    41dc:	81 2f       	mov	r24, r17
    41de:	90 e0       	ldi	r25, 0x00	; 0
    41e0:	c8 16       	cp	r12, r24
    41e2:	d9 06       	cpc	r13, r25
    41e4:	2c f4       	brge	.+10     	; 0x41f0 <__DATA_REGION_LENGTH__+0x1f0>
    41e6:	1c 19       	sub	r17, r12
    41e8:	04 c0       	rjmp	.+8      	; 0x41f2 <__DATA_REGION_LENGTH__+0x1f2>
    41ea:	44 24       	eor	r4, r4
    41ec:	43 94       	inc	r4
    41ee:	01 c0       	rjmp	.+2      	; 0x41f2 <__DATA_REGION_LENGTH__+0x1f2>
    41f0:	10 e0       	ldi	r17, 0x00	; 0
    41f2:	97 fe       	sbrs	r9, 7
    41f4:	06 c0       	rjmp	.+12     	; 0x4202 <__DATA_REGION_LENGTH__+0x202>
    41f6:	1c 14       	cp	r1, r12
    41f8:	1d 04       	cpc	r1, r13
    41fa:	34 f4       	brge	.+12     	; 0x4208 <__DATA_REGION_LENGTH__+0x208>
    41fc:	c6 01       	movw	r24, r12
    41fe:	01 96       	adiw	r24, 0x01	; 1
    4200:	05 c0       	rjmp	.+10     	; 0x420c <__DATA_REGION_LENGTH__+0x20c>
    4202:	85 e0       	ldi	r24, 0x05	; 5
    4204:	90 e0       	ldi	r25, 0x00	; 0
    4206:	02 c0       	rjmp	.+4      	; 0x420c <__DATA_REGION_LENGTH__+0x20c>
    4208:	81 e0       	ldi	r24, 0x01	; 1
    420a:	90 e0       	ldi	r25, 0x00	; 0
    420c:	01 11       	cpse	r16, r1
    420e:	01 96       	adiw	r24, 0x01	; 1
    4210:	11 23       	and	r17, r17
    4212:	31 f0       	breq	.+12     	; 0x4220 <__DATA_REGION_LENGTH__+0x220>
    4214:	21 2f       	mov	r18, r17
    4216:	30 e0       	ldi	r19, 0x00	; 0
    4218:	2f 5f       	subi	r18, 0xFF	; 255
    421a:	3f 4f       	sbci	r19, 0xFF	; 255
    421c:	82 0f       	add	r24, r18
    421e:	93 1f       	adc	r25, r19
    4220:	25 2d       	mov	r18, r5
    4222:	30 e0       	ldi	r19, 0x00	; 0
    4224:	82 17       	cp	r24, r18
    4226:	93 07       	cpc	r25, r19
    4228:	14 f4       	brge	.+4      	; 0x422e <__DATA_REGION_LENGTH__+0x22e>
    422a:	58 1a       	sub	r5, r24
    422c:	01 c0       	rjmp	.+2      	; 0x4230 <__DATA_REGION_LENGTH__+0x230>
    422e:	51 2c       	mov	r5, r1
    4230:	89 2d       	mov	r24, r9
    4232:	89 70       	andi	r24, 0x09	; 9
    4234:	49 f4       	brne	.+18     	; 0x4248 <__DATA_REGION_LENGTH__+0x248>
    4236:	55 20       	and	r5, r5
    4238:	39 f0       	breq	.+14     	; 0x4248 <__DATA_REGION_LENGTH__+0x248>
    423a:	b7 01       	movw	r22, r14
    423c:	80 e2       	ldi	r24, 0x20	; 32
    423e:	90 e0       	ldi	r25, 0x00	; 0
    4240:	0e 94 d0 27 	call	0x4fa0	; 0x4fa0 <fputc>
    4244:	5a 94       	dec	r5
    4246:	f7 cf       	rjmp	.-18     	; 0x4236 <__DATA_REGION_LENGTH__+0x236>
    4248:	00 23       	and	r16, r16
    424a:	29 f0       	breq	.+10     	; 0x4256 <__DATA_REGION_LENGTH__+0x256>
    424c:	b7 01       	movw	r22, r14
    424e:	80 2f       	mov	r24, r16
    4250:	90 e0       	ldi	r25, 0x00	; 0
    4252:	0e 94 d0 27 	call	0x4fa0	; 0x4fa0 <fputc>
    4256:	93 fc       	sbrc	r9, 3
    4258:	09 c0       	rjmp	.+18     	; 0x426c <__DATA_REGION_LENGTH__+0x26c>
    425a:	55 20       	and	r5, r5
    425c:	39 f0       	breq	.+14     	; 0x426c <__DATA_REGION_LENGTH__+0x26c>
    425e:	b7 01       	movw	r22, r14
    4260:	80 e3       	ldi	r24, 0x30	; 48
    4262:	90 e0       	ldi	r25, 0x00	; 0
    4264:	0e 94 d0 27 	call	0x4fa0	; 0x4fa0 <fputc>
    4268:	5a 94       	dec	r5
    426a:	f7 cf       	rjmp	.-18     	; 0x425a <__DATA_REGION_LENGTH__+0x25a>
    426c:	97 fe       	sbrs	r9, 7
    426e:	4c c0       	rjmp	.+152    	; 0x4308 <__DATA_REGION_LENGTH__+0x308>
    4270:	46 01       	movw	r8, r12
    4272:	d7 fe       	sbrs	r13, 7
    4274:	02 c0       	rjmp	.+4      	; 0x427a <__DATA_REGION_LENGTH__+0x27a>
    4276:	81 2c       	mov	r8, r1
    4278:	91 2c       	mov	r9, r1
    427a:	c6 01       	movw	r24, r12
    427c:	88 19       	sub	r24, r8
    427e:	99 09       	sbc	r25, r9
    4280:	f3 01       	movw	r30, r6
    4282:	e8 0f       	add	r30, r24
    4284:	f9 1f       	adc	r31, r25
    4286:	ed 87       	std	Y+13, r30	; 0x0d
    4288:	fe 87       	std	Y+14, r31	; 0x0e
    428a:	96 01       	movw	r18, r12
    428c:	24 19       	sub	r18, r4
    428e:	31 09       	sbc	r19, r1
    4290:	2f 87       	std	Y+15, r18	; 0x0f
    4292:	38 8b       	std	Y+16, r19	; 0x10
    4294:	01 2f       	mov	r16, r17
    4296:	10 e0       	ldi	r17, 0x00	; 0
    4298:	11 95       	neg	r17
    429a:	01 95       	neg	r16
    429c:	11 09       	sbc	r17, r1
    429e:	3f ef       	ldi	r19, 0xFF	; 255
    42a0:	83 16       	cp	r8, r19
    42a2:	93 06       	cpc	r9, r19
    42a4:	29 f4       	brne	.+10     	; 0x42b0 <__DATA_REGION_LENGTH__+0x2b0>
    42a6:	b7 01       	movw	r22, r14
    42a8:	8e e2       	ldi	r24, 0x2E	; 46
    42aa:	90 e0       	ldi	r25, 0x00	; 0
    42ac:	0e 94 d0 27 	call	0x4fa0	; 0x4fa0 <fputc>
    42b0:	c8 14       	cp	r12, r8
    42b2:	d9 04       	cpc	r13, r9
    42b4:	4c f0       	brlt	.+18     	; 0x42c8 <__DATA_REGION_LENGTH__+0x2c8>
    42b6:	8f 85       	ldd	r24, Y+15	; 0x0f
    42b8:	98 89       	ldd	r25, Y+16	; 0x10
    42ba:	88 15       	cp	r24, r8
    42bc:	99 05       	cpc	r25, r9
    42be:	24 f4       	brge	.+8      	; 0x42c8 <__DATA_REGION_LENGTH__+0x2c8>
    42c0:	ed 85       	ldd	r30, Y+13	; 0x0d
    42c2:	fe 85       	ldd	r31, Y+14	; 0x0e
    42c4:	81 81       	ldd	r24, Z+1	; 0x01
    42c6:	01 c0       	rjmp	.+2      	; 0x42ca <__DATA_REGION_LENGTH__+0x2ca>
    42c8:	80 e3       	ldi	r24, 0x30	; 48
    42ca:	f1 e0       	ldi	r31, 0x01	; 1
    42cc:	8f 1a       	sub	r8, r31
    42ce:	91 08       	sbc	r9, r1
    42d0:	2d 85       	ldd	r18, Y+13	; 0x0d
    42d2:	3e 85       	ldd	r19, Y+14	; 0x0e
    42d4:	2f 5f       	subi	r18, 0xFF	; 255
    42d6:	3f 4f       	sbci	r19, 0xFF	; 255
    42d8:	2d 87       	std	Y+13, r18	; 0x0d
    42da:	3e 87       	std	Y+14, r19	; 0x0e
    42dc:	80 16       	cp	r8, r16
    42de:	91 06       	cpc	r9, r17
    42e0:	2c f0       	brlt	.+10     	; 0x42ec <__DATA_REGION_LENGTH__+0x2ec>
    42e2:	b7 01       	movw	r22, r14
    42e4:	90 e0       	ldi	r25, 0x00	; 0
    42e6:	0e 94 d0 27 	call	0x4fa0	; 0x4fa0 <fputc>
    42ea:	d9 cf       	rjmp	.-78     	; 0x429e <__DATA_REGION_LENGTH__+0x29e>
    42ec:	c8 14       	cp	r12, r8
    42ee:	d9 04       	cpc	r13, r9
    42f0:	41 f4       	brne	.+16     	; 0x4302 <__DATA_REGION_LENGTH__+0x302>
    42f2:	9a 81       	ldd	r25, Y+2	; 0x02
    42f4:	96 33       	cpi	r25, 0x36	; 54
    42f6:	20 f4       	brcc	.+8      	; 0x4300 <__DATA_REGION_LENGTH__+0x300>
    42f8:	95 33       	cpi	r25, 0x35	; 53
    42fa:	19 f4       	brne	.+6      	; 0x4302 <__DATA_REGION_LENGTH__+0x302>
    42fc:	3c 85       	ldd	r19, Y+12	; 0x0c
    42fe:	34 ff       	sbrs	r19, 4
    4300:	81 e3       	ldi	r24, 0x31	; 49
    4302:	b7 01       	movw	r22, r14
    4304:	90 e0       	ldi	r25, 0x00	; 0
    4306:	4e c0       	rjmp	.+156    	; 0x43a4 <__DATA_REGION_LENGTH__+0x3a4>
    4308:	8a 81       	ldd	r24, Y+2	; 0x02
    430a:	81 33       	cpi	r24, 0x31	; 49
    430c:	19 f0       	breq	.+6      	; 0x4314 <__DATA_REGION_LENGTH__+0x314>
    430e:	9c 85       	ldd	r25, Y+12	; 0x0c
    4310:	9f 7e       	andi	r25, 0xEF	; 239
    4312:	9c 87       	std	Y+12, r25	; 0x0c
    4314:	b7 01       	movw	r22, r14
    4316:	90 e0       	ldi	r25, 0x00	; 0
    4318:	0e 94 d0 27 	call	0x4fa0	; 0x4fa0 <fputc>
    431c:	11 11       	cpse	r17, r1
    431e:	05 c0       	rjmp	.+10     	; 0x432a <__DATA_REGION_LENGTH__+0x32a>
    4320:	94 fc       	sbrc	r9, 4
    4322:	18 c0       	rjmp	.+48     	; 0x4354 <__DATA_REGION_LENGTH__+0x354>
    4324:	85 e6       	ldi	r24, 0x65	; 101
    4326:	90 e0       	ldi	r25, 0x00	; 0
    4328:	17 c0       	rjmp	.+46     	; 0x4358 <__DATA_REGION_LENGTH__+0x358>
    432a:	b7 01       	movw	r22, r14
    432c:	8e e2       	ldi	r24, 0x2E	; 46
    432e:	90 e0       	ldi	r25, 0x00	; 0
    4330:	0e 94 d0 27 	call	0x4fa0	; 0x4fa0 <fputc>
    4334:	1e 5f       	subi	r17, 0xFE	; 254
    4336:	82 e0       	ldi	r24, 0x02	; 2
    4338:	01 e0       	ldi	r16, 0x01	; 1
    433a:	08 0f       	add	r16, r24
    433c:	f3 01       	movw	r30, r6
    433e:	e8 0f       	add	r30, r24
    4340:	f1 1d       	adc	r31, r1
    4342:	80 81       	ld	r24, Z
    4344:	b7 01       	movw	r22, r14
    4346:	90 e0       	ldi	r25, 0x00	; 0
    4348:	0e 94 d0 27 	call	0x4fa0	; 0x4fa0 <fputc>
    434c:	80 2f       	mov	r24, r16
    434e:	01 13       	cpse	r16, r17
    4350:	f3 cf       	rjmp	.-26     	; 0x4338 <__DATA_REGION_LENGTH__+0x338>
    4352:	e6 cf       	rjmp	.-52     	; 0x4320 <__DATA_REGION_LENGTH__+0x320>
    4354:	85 e4       	ldi	r24, 0x45	; 69
    4356:	90 e0       	ldi	r25, 0x00	; 0
    4358:	b7 01       	movw	r22, r14
    435a:	0e 94 d0 27 	call	0x4fa0	; 0x4fa0 <fputc>
    435e:	d7 fc       	sbrc	r13, 7
    4360:	06 c0       	rjmp	.+12     	; 0x436e <__DATA_REGION_LENGTH__+0x36e>
    4362:	c1 14       	cp	r12, r1
    4364:	d1 04       	cpc	r13, r1
    4366:	41 f4       	brne	.+16     	; 0x4378 <__DATA_REGION_LENGTH__+0x378>
    4368:	ec 85       	ldd	r30, Y+12	; 0x0c
    436a:	e4 ff       	sbrs	r30, 4
    436c:	05 c0       	rjmp	.+10     	; 0x4378 <__DATA_REGION_LENGTH__+0x378>
    436e:	d1 94       	neg	r13
    4370:	c1 94       	neg	r12
    4372:	d1 08       	sbc	r13, r1
    4374:	8d e2       	ldi	r24, 0x2D	; 45
    4376:	01 c0       	rjmp	.+2      	; 0x437a <__DATA_REGION_LENGTH__+0x37a>
    4378:	8b e2       	ldi	r24, 0x2B	; 43
    437a:	b7 01       	movw	r22, r14
    437c:	90 e0       	ldi	r25, 0x00	; 0
    437e:	0e 94 d0 27 	call	0x4fa0	; 0x4fa0 <fputc>
    4382:	80 e3       	ldi	r24, 0x30	; 48
    4384:	2a e0       	ldi	r18, 0x0A	; 10
    4386:	c2 16       	cp	r12, r18
    4388:	d1 04       	cpc	r13, r1
    438a:	2c f0       	brlt	.+10     	; 0x4396 <__DATA_REGION_LENGTH__+0x396>
    438c:	8f 5f       	subi	r24, 0xFF	; 255
    438e:	fa e0       	ldi	r31, 0x0A	; 10
    4390:	cf 1a       	sub	r12, r31
    4392:	d1 08       	sbc	r13, r1
    4394:	f7 cf       	rjmp	.-18     	; 0x4384 <__DATA_REGION_LENGTH__+0x384>
    4396:	b7 01       	movw	r22, r14
    4398:	90 e0       	ldi	r25, 0x00	; 0
    439a:	0e 94 d0 27 	call	0x4fa0	; 0x4fa0 <fputc>
    439e:	b7 01       	movw	r22, r14
    43a0:	c6 01       	movw	r24, r12
    43a2:	c0 96       	adiw	r24, 0x30	; 48
    43a4:	0e 94 d0 27 	call	0x4fa0	; 0x4fa0 <fputc>
    43a8:	54 c1       	rjmp	.+680    	; 0x4652 <__DATA_REGION_LENGTH__+0x652>
    43aa:	83 36       	cpi	r24, 0x63	; 99
    43ac:	31 f0       	breq	.+12     	; 0x43ba <__DATA_REGION_LENGTH__+0x3ba>
    43ae:	83 37       	cpi	r24, 0x73	; 115
    43b0:	79 f0       	breq	.+30     	; 0x43d0 <__DATA_REGION_LENGTH__+0x3d0>
    43b2:	83 35       	cpi	r24, 0x53	; 83
    43b4:	09 f0       	breq	.+2      	; 0x43b8 <__DATA_REGION_LENGTH__+0x3b8>
    43b6:	56 c0       	rjmp	.+172    	; 0x4464 <__DATA_REGION_LENGTH__+0x464>
    43b8:	20 c0       	rjmp	.+64     	; 0x43fa <__DATA_REGION_LENGTH__+0x3fa>
    43ba:	56 01       	movw	r10, r12
    43bc:	32 e0       	ldi	r19, 0x02	; 2
    43be:	a3 0e       	add	r10, r19
    43c0:	b1 1c       	adc	r11, r1
    43c2:	f6 01       	movw	r30, r12
    43c4:	80 81       	ld	r24, Z
    43c6:	89 83       	std	Y+1, r24	; 0x01
    43c8:	01 e0       	ldi	r16, 0x01	; 1
    43ca:	10 e0       	ldi	r17, 0x00	; 0
    43cc:	63 01       	movw	r12, r6
    43ce:	12 c0       	rjmp	.+36     	; 0x43f4 <__DATA_REGION_LENGTH__+0x3f4>
    43d0:	56 01       	movw	r10, r12
    43d2:	f2 e0       	ldi	r31, 0x02	; 2
    43d4:	af 0e       	add	r10, r31
    43d6:	b1 1c       	adc	r11, r1
    43d8:	f6 01       	movw	r30, r12
    43da:	c0 80       	ld	r12, Z
    43dc:	d1 80       	ldd	r13, Z+1	; 0x01
    43de:	96 fe       	sbrs	r9, 6
    43e0:	03 c0       	rjmp	.+6      	; 0x43e8 <__DATA_REGION_LENGTH__+0x3e8>
    43e2:	61 2f       	mov	r22, r17
    43e4:	70 e0       	ldi	r23, 0x00	; 0
    43e6:	02 c0       	rjmp	.+4      	; 0x43ec <__DATA_REGION_LENGTH__+0x3ec>
    43e8:	6f ef       	ldi	r22, 0xFF	; 255
    43ea:	7f ef       	ldi	r23, 0xFF	; 255
    43ec:	c6 01       	movw	r24, r12
    43ee:	0e 94 a8 27 	call	0x4f50	; 0x4f50 <strnlen>
    43f2:	8c 01       	movw	r16, r24
    43f4:	f9 2d       	mov	r31, r9
    43f6:	ff 77       	andi	r31, 0x7F	; 127
    43f8:	14 c0       	rjmp	.+40     	; 0x4422 <__DATA_REGION_LENGTH__+0x422>
    43fa:	56 01       	movw	r10, r12
    43fc:	22 e0       	ldi	r18, 0x02	; 2
    43fe:	a2 0e       	add	r10, r18
    4400:	b1 1c       	adc	r11, r1
    4402:	f6 01       	movw	r30, r12
    4404:	c0 80       	ld	r12, Z
    4406:	d1 80       	ldd	r13, Z+1	; 0x01
    4408:	96 fe       	sbrs	r9, 6
    440a:	03 c0       	rjmp	.+6      	; 0x4412 <__DATA_REGION_LENGTH__+0x412>
    440c:	61 2f       	mov	r22, r17
    440e:	70 e0       	ldi	r23, 0x00	; 0
    4410:	02 c0       	rjmp	.+4      	; 0x4416 <__DATA_REGION_LENGTH__+0x416>
    4412:	6f ef       	ldi	r22, 0xFF	; 255
    4414:	7f ef       	ldi	r23, 0xFF	; 255
    4416:	c6 01       	movw	r24, r12
    4418:	0e 94 9d 27 	call	0x4f3a	; 0x4f3a <strnlen_P>
    441c:	8c 01       	movw	r16, r24
    441e:	f9 2d       	mov	r31, r9
    4420:	f0 68       	ori	r31, 0x80	; 128
    4422:	9f 2e       	mov	r9, r31
    4424:	f3 fd       	sbrc	r31, 3
    4426:	1a c0       	rjmp	.+52     	; 0x445c <__DATA_REGION_LENGTH__+0x45c>
    4428:	85 2d       	mov	r24, r5
    442a:	90 e0       	ldi	r25, 0x00	; 0
    442c:	08 17       	cp	r16, r24
    442e:	19 07       	cpc	r17, r25
    4430:	a8 f4       	brcc	.+42     	; 0x445c <__DATA_REGION_LENGTH__+0x45c>
    4432:	b7 01       	movw	r22, r14
    4434:	80 e2       	ldi	r24, 0x20	; 32
    4436:	90 e0       	ldi	r25, 0x00	; 0
    4438:	0e 94 d0 27 	call	0x4fa0	; 0x4fa0 <fputc>
    443c:	5a 94       	dec	r5
    443e:	f4 cf       	rjmp	.-24     	; 0x4428 <__DATA_REGION_LENGTH__+0x428>
    4440:	f6 01       	movw	r30, r12
    4442:	97 fc       	sbrc	r9, 7
    4444:	85 91       	lpm	r24, Z+
    4446:	97 fe       	sbrs	r9, 7
    4448:	81 91       	ld	r24, Z+
    444a:	6f 01       	movw	r12, r30
    444c:	b7 01       	movw	r22, r14
    444e:	90 e0       	ldi	r25, 0x00	; 0
    4450:	0e 94 d0 27 	call	0x4fa0	; 0x4fa0 <fputc>
    4454:	51 10       	cpse	r5, r1
    4456:	5a 94       	dec	r5
    4458:	01 50       	subi	r16, 0x01	; 1
    445a:	11 09       	sbc	r17, r1
    445c:	01 15       	cp	r16, r1
    445e:	11 05       	cpc	r17, r1
    4460:	79 f7       	brne	.-34     	; 0x4440 <__DATA_REGION_LENGTH__+0x440>
    4462:	f7 c0       	rjmp	.+494    	; 0x4652 <__DATA_REGION_LENGTH__+0x652>
    4464:	84 36       	cpi	r24, 0x64	; 100
    4466:	11 f0       	breq	.+4      	; 0x446c <__DATA_REGION_LENGTH__+0x46c>
    4468:	89 36       	cpi	r24, 0x69	; 105
    446a:	61 f5       	brne	.+88     	; 0x44c4 <__DATA_REGION_LENGTH__+0x4c4>
    446c:	56 01       	movw	r10, r12
    446e:	97 fe       	sbrs	r9, 7
    4470:	09 c0       	rjmp	.+18     	; 0x4484 <__DATA_REGION_LENGTH__+0x484>
    4472:	24 e0       	ldi	r18, 0x04	; 4
    4474:	a2 0e       	add	r10, r18
    4476:	b1 1c       	adc	r11, r1
    4478:	f6 01       	movw	r30, r12
    447a:	60 81       	ld	r22, Z
    447c:	71 81       	ldd	r23, Z+1	; 0x01
    447e:	82 81       	ldd	r24, Z+2	; 0x02
    4480:	93 81       	ldd	r25, Z+3	; 0x03
    4482:	0a c0       	rjmp	.+20     	; 0x4498 <__DATA_REGION_LENGTH__+0x498>
    4484:	f2 e0       	ldi	r31, 0x02	; 2
    4486:	af 0e       	add	r10, r31
    4488:	b1 1c       	adc	r11, r1
    448a:	f6 01       	movw	r30, r12
    448c:	60 81       	ld	r22, Z
    448e:	71 81       	ldd	r23, Z+1	; 0x01
    4490:	07 2e       	mov	r0, r23
    4492:	00 0c       	add	r0, r0
    4494:	88 0b       	sbc	r24, r24
    4496:	99 0b       	sbc	r25, r25
    4498:	f9 2d       	mov	r31, r9
    449a:	ff 76       	andi	r31, 0x6F	; 111
    449c:	9f 2e       	mov	r9, r31
    449e:	97 ff       	sbrs	r25, 7
    44a0:	09 c0       	rjmp	.+18     	; 0x44b4 <__DATA_REGION_LENGTH__+0x4b4>
    44a2:	90 95       	com	r25
    44a4:	80 95       	com	r24
    44a6:	70 95       	com	r23
    44a8:	61 95       	neg	r22
    44aa:	7f 4f       	sbci	r23, 0xFF	; 255
    44ac:	8f 4f       	sbci	r24, 0xFF	; 255
    44ae:	9f 4f       	sbci	r25, 0xFF	; 255
    44b0:	f0 68       	ori	r31, 0x80	; 128
    44b2:	9f 2e       	mov	r9, r31
    44b4:	2a e0       	ldi	r18, 0x0A	; 10
    44b6:	30 e0       	ldi	r19, 0x00	; 0
    44b8:	a3 01       	movw	r20, r6
    44ba:	0e 94 43 28 	call	0x5086	; 0x5086 <__ultoa_invert>
    44be:	c8 2e       	mov	r12, r24
    44c0:	c6 18       	sub	r12, r6
    44c2:	3f c0       	rjmp	.+126    	; 0x4542 <__DATA_REGION_LENGTH__+0x542>
    44c4:	09 2d       	mov	r16, r9
    44c6:	85 37       	cpi	r24, 0x75	; 117
    44c8:	21 f4       	brne	.+8      	; 0x44d2 <__DATA_REGION_LENGTH__+0x4d2>
    44ca:	0f 7e       	andi	r16, 0xEF	; 239
    44cc:	2a e0       	ldi	r18, 0x0A	; 10
    44ce:	30 e0       	ldi	r19, 0x00	; 0
    44d0:	1d c0       	rjmp	.+58     	; 0x450c <__DATA_REGION_LENGTH__+0x50c>
    44d2:	09 7f       	andi	r16, 0xF9	; 249
    44d4:	8f 36       	cpi	r24, 0x6F	; 111
    44d6:	91 f0       	breq	.+36     	; 0x44fc <__DATA_REGION_LENGTH__+0x4fc>
    44d8:	18 f4       	brcc	.+6      	; 0x44e0 <__DATA_REGION_LENGTH__+0x4e0>
    44da:	88 35       	cpi	r24, 0x58	; 88
    44dc:	59 f0       	breq	.+22     	; 0x44f4 <__DATA_REGION_LENGTH__+0x4f4>
    44de:	c3 c0       	rjmp	.+390    	; 0x4666 <__DATA_REGION_LENGTH__+0x666>
    44e0:	80 37       	cpi	r24, 0x70	; 112
    44e2:	19 f0       	breq	.+6      	; 0x44ea <__DATA_REGION_LENGTH__+0x4ea>
    44e4:	88 37       	cpi	r24, 0x78	; 120
    44e6:	11 f0       	breq	.+4      	; 0x44ec <__DATA_REGION_LENGTH__+0x4ec>
    44e8:	be c0       	rjmp	.+380    	; 0x4666 <__DATA_REGION_LENGTH__+0x666>
    44ea:	00 61       	ori	r16, 0x10	; 16
    44ec:	04 ff       	sbrs	r16, 4
    44ee:	09 c0       	rjmp	.+18     	; 0x4502 <__DATA_REGION_LENGTH__+0x502>
    44f0:	04 60       	ori	r16, 0x04	; 4
    44f2:	07 c0       	rjmp	.+14     	; 0x4502 <__DATA_REGION_LENGTH__+0x502>
    44f4:	94 fe       	sbrs	r9, 4
    44f6:	08 c0       	rjmp	.+16     	; 0x4508 <__DATA_REGION_LENGTH__+0x508>
    44f8:	06 60       	ori	r16, 0x06	; 6
    44fa:	06 c0       	rjmp	.+12     	; 0x4508 <__DATA_REGION_LENGTH__+0x508>
    44fc:	28 e0       	ldi	r18, 0x08	; 8
    44fe:	30 e0       	ldi	r19, 0x00	; 0
    4500:	05 c0       	rjmp	.+10     	; 0x450c <__DATA_REGION_LENGTH__+0x50c>
    4502:	20 e1       	ldi	r18, 0x10	; 16
    4504:	30 e0       	ldi	r19, 0x00	; 0
    4506:	02 c0       	rjmp	.+4      	; 0x450c <__DATA_REGION_LENGTH__+0x50c>
    4508:	20 e1       	ldi	r18, 0x10	; 16
    450a:	32 e0       	ldi	r19, 0x02	; 2
    450c:	56 01       	movw	r10, r12
    450e:	07 ff       	sbrs	r16, 7
    4510:	09 c0       	rjmp	.+18     	; 0x4524 <__DATA_REGION_LENGTH__+0x524>
    4512:	84 e0       	ldi	r24, 0x04	; 4
    4514:	a8 0e       	add	r10, r24
    4516:	b1 1c       	adc	r11, r1
    4518:	f6 01       	movw	r30, r12
    451a:	60 81       	ld	r22, Z
    451c:	71 81       	ldd	r23, Z+1	; 0x01
    451e:	82 81       	ldd	r24, Z+2	; 0x02
    4520:	93 81       	ldd	r25, Z+3	; 0x03
    4522:	08 c0       	rjmp	.+16     	; 0x4534 <__DATA_REGION_LENGTH__+0x534>
    4524:	f2 e0       	ldi	r31, 0x02	; 2
    4526:	af 0e       	add	r10, r31
    4528:	b1 1c       	adc	r11, r1
    452a:	f6 01       	movw	r30, r12
    452c:	60 81       	ld	r22, Z
    452e:	71 81       	ldd	r23, Z+1	; 0x01
    4530:	80 e0       	ldi	r24, 0x00	; 0
    4532:	90 e0       	ldi	r25, 0x00	; 0
    4534:	a3 01       	movw	r20, r6
    4536:	0e 94 43 28 	call	0x5086	; 0x5086 <__ultoa_invert>
    453a:	c8 2e       	mov	r12, r24
    453c:	c6 18       	sub	r12, r6
    453e:	0f 77       	andi	r16, 0x7F	; 127
    4540:	90 2e       	mov	r9, r16
    4542:	96 fe       	sbrs	r9, 6
    4544:	0b c0       	rjmp	.+22     	; 0x455c <__DATA_REGION_LENGTH__+0x55c>
    4546:	09 2d       	mov	r16, r9
    4548:	0e 7f       	andi	r16, 0xFE	; 254
    454a:	c1 16       	cp	r12, r17
    454c:	50 f4       	brcc	.+20     	; 0x4562 <__DATA_REGION_LENGTH__+0x562>
    454e:	94 fe       	sbrs	r9, 4
    4550:	0a c0       	rjmp	.+20     	; 0x4566 <__DATA_REGION_LENGTH__+0x566>
    4552:	92 fc       	sbrc	r9, 2
    4554:	08 c0       	rjmp	.+16     	; 0x4566 <__DATA_REGION_LENGTH__+0x566>
    4556:	09 2d       	mov	r16, r9
    4558:	0e 7e       	andi	r16, 0xEE	; 238
    455a:	05 c0       	rjmp	.+10     	; 0x4566 <__DATA_REGION_LENGTH__+0x566>
    455c:	dc 2c       	mov	r13, r12
    455e:	09 2d       	mov	r16, r9
    4560:	03 c0       	rjmp	.+6      	; 0x4568 <__DATA_REGION_LENGTH__+0x568>
    4562:	dc 2c       	mov	r13, r12
    4564:	01 c0       	rjmp	.+2      	; 0x4568 <__DATA_REGION_LENGTH__+0x568>
    4566:	d1 2e       	mov	r13, r17
    4568:	04 ff       	sbrs	r16, 4
    456a:	0d c0       	rjmp	.+26     	; 0x4586 <__DATA_REGION_LENGTH__+0x586>
    456c:	fe 01       	movw	r30, r28
    456e:	ec 0d       	add	r30, r12
    4570:	f1 1d       	adc	r31, r1
    4572:	80 81       	ld	r24, Z
    4574:	80 33       	cpi	r24, 0x30	; 48
    4576:	11 f4       	brne	.+4      	; 0x457c <__DATA_REGION_LENGTH__+0x57c>
    4578:	09 7e       	andi	r16, 0xE9	; 233
    457a:	09 c0       	rjmp	.+18     	; 0x458e <__DATA_REGION_LENGTH__+0x58e>
    457c:	02 ff       	sbrs	r16, 2
    457e:	06 c0       	rjmp	.+12     	; 0x458c <__DATA_REGION_LENGTH__+0x58c>
    4580:	d3 94       	inc	r13
    4582:	d3 94       	inc	r13
    4584:	04 c0       	rjmp	.+8      	; 0x458e <__DATA_REGION_LENGTH__+0x58e>
    4586:	80 2f       	mov	r24, r16
    4588:	86 78       	andi	r24, 0x86	; 134
    458a:	09 f0       	breq	.+2      	; 0x458e <__DATA_REGION_LENGTH__+0x58e>
    458c:	d3 94       	inc	r13
    458e:	03 fd       	sbrc	r16, 3
    4590:	11 c0       	rjmp	.+34     	; 0x45b4 <__DATA_REGION_LENGTH__+0x5b4>
    4592:	00 ff       	sbrs	r16, 0
    4594:	06 c0       	rjmp	.+12     	; 0x45a2 <__DATA_REGION_LENGTH__+0x5a2>
    4596:	1c 2d       	mov	r17, r12
    4598:	d5 14       	cp	r13, r5
    459a:	80 f4       	brcc	.+32     	; 0x45bc <__DATA_REGION_LENGTH__+0x5bc>
    459c:	15 0d       	add	r17, r5
    459e:	1d 19       	sub	r17, r13
    45a0:	0d c0       	rjmp	.+26     	; 0x45bc <__DATA_REGION_LENGTH__+0x5bc>
    45a2:	d5 14       	cp	r13, r5
    45a4:	58 f4       	brcc	.+22     	; 0x45bc <__DATA_REGION_LENGTH__+0x5bc>
    45a6:	b7 01       	movw	r22, r14
    45a8:	80 e2       	ldi	r24, 0x20	; 32
    45aa:	90 e0       	ldi	r25, 0x00	; 0
    45ac:	0e 94 d0 27 	call	0x4fa0	; 0x4fa0 <fputc>
    45b0:	d3 94       	inc	r13
    45b2:	f7 cf       	rjmp	.-18     	; 0x45a2 <__DATA_REGION_LENGTH__+0x5a2>
    45b4:	d5 14       	cp	r13, r5
    45b6:	10 f4       	brcc	.+4      	; 0x45bc <__DATA_REGION_LENGTH__+0x5bc>
    45b8:	5d 18       	sub	r5, r13
    45ba:	01 c0       	rjmp	.+2      	; 0x45be <__DATA_REGION_LENGTH__+0x5be>
    45bc:	51 2c       	mov	r5, r1
    45be:	04 ff       	sbrs	r16, 4
    45c0:	10 c0       	rjmp	.+32     	; 0x45e2 <__DATA_REGION_LENGTH__+0x5e2>
    45c2:	b7 01       	movw	r22, r14
    45c4:	80 e3       	ldi	r24, 0x30	; 48
    45c6:	90 e0       	ldi	r25, 0x00	; 0
    45c8:	0e 94 d0 27 	call	0x4fa0	; 0x4fa0 <fputc>
    45cc:	02 ff       	sbrs	r16, 2
    45ce:	17 c0       	rjmp	.+46     	; 0x45fe <__DATA_REGION_LENGTH__+0x5fe>
    45d0:	01 fd       	sbrc	r16, 1
    45d2:	03 c0       	rjmp	.+6      	; 0x45da <__DATA_REGION_LENGTH__+0x5da>
    45d4:	88 e7       	ldi	r24, 0x78	; 120
    45d6:	90 e0       	ldi	r25, 0x00	; 0
    45d8:	02 c0       	rjmp	.+4      	; 0x45de <__DATA_REGION_LENGTH__+0x5de>
    45da:	88 e5       	ldi	r24, 0x58	; 88
    45dc:	90 e0       	ldi	r25, 0x00	; 0
    45de:	b7 01       	movw	r22, r14
    45e0:	0c c0       	rjmp	.+24     	; 0x45fa <__DATA_REGION_LENGTH__+0x5fa>
    45e2:	80 2f       	mov	r24, r16
    45e4:	86 78       	andi	r24, 0x86	; 134
    45e6:	59 f0       	breq	.+22     	; 0x45fe <__DATA_REGION_LENGTH__+0x5fe>
    45e8:	01 ff       	sbrs	r16, 1
    45ea:	02 c0       	rjmp	.+4      	; 0x45f0 <__DATA_REGION_LENGTH__+0x5f0>
    45ec:	8b e2       	ldi	r24, 0x2B	; 43
    45ee:	01 c0       	rjmp	.+2      	; 0x45f2 <__DATA_REGION_LENGTH__+0x5f2>
    45f0:	80 e2       	ldi	r24, 0x20	; 32
    45f2:	07 fd       	sbrc	r16, 7
    45f4:	8d e2       	ldi	r24, 0x2D	; 45
    45f6:	b7 01       	movw	r22, r14
    45f8:	90 e0       	ldi	r25, 0x00	; 0
    45fa:	0e 94 d0 27 	call	0x4fa0	; 0x4fa0 <fputc>
    45fe:	c1 16       	cp	r12, r17
    4600:	38 f4       	brcc	.+14     	; 0x4610 <__DATA_REGION_LENGTH__+0x610>
    4602:	b7 01       	movw	r22, r14
    4604:	80 e3       	ldi	r24, 0x30	; 48
    4606:	90 e0       	ldi	r25, 0x00	; 0
    4608:	0e 94 d0 27 	call	0x4fa0	; 0x4fa0 <fputc>
    460c:	11 50       	subi	r17, 0x01	; 1
    460e:	f7 cf       	rjmp	.-18     	; 0x45fe <__DATA_REGION_LENGTH__+0x5fe>
    4610:	ca 94       	dec	r12
    4612:	f3 01       	movw	r30, r6
    4614:	ec 0d       	add	r30, r12
    4616:	f1 1d       	adc	r31, r1
    4618:	80 81       	ld	r24, Z
    461a:	b7 01       	movw	r22, r14
    461c:	90 e0       	ldi	r25, 0x00	; 0
    461e:	0e 94 d0 27 	call	0x4fa0	; 0x4fa0 <fputc>
    4622:	c1 10       	cpse	r12, r1
    4624:	f5 cf       	rjmp	.-22     	; 0x4610 <__DATA_REGION_LENGTH__+0x610>
    4626:	15 c0       	rjmp	.+42     	; 0x4652 <__DATA_REGION_LENGTH__+0x652>
    4628:	f4 e0       	ldi	r31, 0x04	; 4
    462a:	f5 15       	cp	r31, r5
    462c:	60 f5       	brcc	.+88     	; 0x4686 <__DATA_REGION_LENGTH__+0x686>
    462e:	84 e0       	ldi	r24, 0x04	; 4
    4630:	58 1a       	sub	r5, r24
    4632:	93 fe       	sbrs	r9, 3
    4634:	1f c0       	rjmp	.+62     	; 0x4674 <__DATA_REGION_LENGTH__+0x674>
    4636:	01 11       	cpse	r16, r1
    4638:	27 c0       	rjmp	.+78     	; 0x4688 <__DATA_REGION_LENGTH__+0x688>
    463a:	2c 85       	ldd	r18, Y+12	; 0x0c
    463c:	23 ff       	sbrs	r18, 3
    463e:	2a c0       	rjmp	.+84     	; 0x4694 <__DATA_REGION_LENGTH__+0x694>
    4640:	00 e6       	ldi	r16, 0x60	; 96
    4642:	12 e0       	ldi	r17, 0x02	; 2
    4644:	39 2d       	mov	r19, r9
    4646:	30 71       	andi	r19, 0x10	; 16
    4648:	93 2e       	mov	r9, r19
    464a:	f8 01       	movw	r30, r16
    464c:	84 91       	lpm	r24, Z
    464e:	81 11       	cpse	r24, r1
    4650:	24 c0       	rjmp	.+72     	; 0x469a <__DATA_REGION_LENGTH__+0x69a>
    4652:	55 20       	and	r5, r5
    4654:	09 f4       	brne	.+2      	; 0x4658 <__DATA_REGION_LENGTH__+0x658>
    4656:	e4 cc       	rjmp	.-1592   	; 0x4020 <__DATA_REGION_LENGTH__+0x20>
    4658:	b7 01       	movw	r22, r14
    465a:	80 e2       	ldi	r24, 0x20	; 32
    465c:	90 e0       	ldi	r25, 0x00	; 0
    465e:	0e 94 d0 27 	call	0x4fa0	; 0x4fa0 <fputc>
    4662:	5a 94       	dec	r5
    4664:	f6 cf       	rjmp	.-20     	; 0x4652 <__DATA_REGION_LENGTH__+0x652>
    4666:	f7 01       	movw	r30, r14
    4668:	86 81       	ldd	r24, Z+6	; 0x06
    466a:	97 81       	ldd	r25, Z+7	; 0x07
    466c:	26 c0       	rjmp	.+76     	; 0x46ba <__DATA_REGION_LENGTH__+0x6ba>
    466e:	8f ef       	ldi	r24, 0xFF	; 255
    4670:	9f ef       	ldi	r25, 0xFF	; 255
    4672:	23 c0       	rjmp	.+70     	; 0x46ba <__DATA_REGION_LENGTH__+0x6ba>
    4674:	b7 01       	movw	r22, r14
    4676:	80 e2       	ldi	r24, 0x20	; 32
    4678:	90 e0       	ldi	r25, 0x00	; 0
    467a:	0e 94 d0 27 	call	0x4fa0	; 0x4fa0 <fputc>
    467e:	5a 94       	dec	r5
    4680:	51 10       	cpse	r5, r1
    4682:	f8 cf       	rjmp	.-16     	; 0x4674 <__DATA_REGION_LENGTH__+0x674>
    4684:	d8 cf       	rjmp	.-80     	; 0x4636 <__DATA_REGION_LENGTH__+0x636>
    4686:	51 2c       	mov	r5, r1
    4688:	b7 01       	movw	r22, r14
    468a:	80 2f       	mov	r24, r16
    468c:	90 e0       	ldi	r25, 0x00	; 0
    468e:	0e 94 d0 27 	call	0x4fa0	; 0x4fa0 <fputc>
    4692:	d3 cf       	rjmp	.-90     	; 0x463a <__DATA_REGION_LENGTH__+0x63a>
    4694:	04 e6       	ldi	r16, 0x64	; 100
    4696:	12 e0       	ldi	r17, 0x02	; 2
    4698:	d5 cf       	rjmp	.-86     	; 0x4644 <__DATA_REGION_LENGTH__+0x644>
    469a:	91 10       	cpse	r9, r1
    469c:	80 52       	subi	r24, 0x20	; 32
    469e:	b7 01       	movw	r22, r14
    46a0:	90 e0       	ldi	r25, 0x00	; 0
    46a2:	0e 94 d0 27 	call	0x4fa0	; 0x4fa0 <fputc>
    46a6:	0f 5f       	subi	r16, 0xFF	; 255
    46a8:	1f 4f       	sbci	r17, 0xFF	; 255
    46aa:	cf cf       	rjmp	.-98     	; 0x464a <__DATA_REGION_LENGTH__+0x64a>
    46ac:	23 e0       	ldi	r18, 0x03	; 3
    46ae:	25 15       	cp	r18, r5
    46b0:	10 f4       	brcc	.+4      	; 0x46b6 <__DATA_REGION_LENGTH__+0x6b6>
    46b2:	83 e0       	ldi	r24, 0x03	; 3
    46b4:	bd cf       	rjmp	.-134    	; 0x4630 <__DATA_REGION_LENGTH__+0x630>
    46b6:	51 2c       	mov	r5, r1
    46b8:	c0 cf       	rjmp	.-128    	; 0x463a <__DATA_REGION_LENGTH__+0x63a>
    46ba:	60 96       	adiw	r28, 0x10	; 16
    46bc:	cd bf       	out	0x3d, r28	; 61
    46be:	de bf       	out	0x3e, r29	; 62
    46c0:	df 91       	pop	r29
    46c2:	cf 91       	pop	r28
    46c4:	1f 91       	pop	r17
    46c6:	0f 91       	pop	r16
    46c8:	ff 90       	pop	r15
    46ca:	ef 90       	pop	r14
    46cc:	df 90       	pop	r13
    46ce:	cf 90       	pop	r12
    46d0:	bf 90       	pop	r11
    46d2:	af 90       	pop	r10
    46d4:	9f 90       	pop	r9
    46d6:	8f 90       	pop	r8
    46d8:	7f 90       	pop	r7
    46da:	6f 90       	pop	r6
    46dc:	5f 90       	pop	r5
    46de:	4f 90       	pop	r4
    46e0:	3f 90       	pop	r3
    46e2:	2f 90       	pop	r2
    46e4:	08 95       	ret

000046e6 <__mulsi3>:
    46e6:	db 01       	movw	r26, r22
    46e8:	8f 93       	push	r24
    46ea:	9f 93       	push	r25
    46ec:	0e 94 8c 23 	call	0x4718	; 0x4718 <__muluhisi3>
    46f0:	bf 91       	pop	r27
    46f2:	af 91       	pop	r26
    46f4:	a2 9f       	mul	r26, r18
    46f6:	80 0d       	add	r24, r0
    46f8:	91 1d       	adc	r25, r1
    46fa:	a3 9f       	mul	r26, r19
    46fc:	90 0d       	add	r25, r0
    46fe:	b2 9f       	mul	r27, r18
    4700:	90 0d       	add	r25, r0
    4702:	11 24       	eor	r1, r1
    4704:	08 95       	ret

00004706 <__tablejump2__>:
    4706:	ee 0f       	add	r30, r30
    4708:	ff 1f       	adc	r31, r31
    470a:	00 24       	eor	r0, r0
    470c:	00 1c       	adc	r0, r0
    470e:	0b be       	out	0x3b, r0	; 59
    4710:	07 90       	elpm	r0, Z+
    4712:	f6 91       	elpm	r31, Z
    4714:	e0 2d       	mov	r30, r0
    4716:	09 94       	ijmp

00004718 <__muluhisi3>:
    4718:	0e 94 d3 23 	call	0x47a6	; 0x47a6 <__umulhisi3>
    471c:	a5 9f       	mul	r26, r21
    471e:	90 0d       	add	r25, r0
    4720:	b4 9f       	mul	r27, r20
    4722:	90 0d       	add	r25, r0
    4724:	a4 9f       	mul	r26, r20
    4726:	80 0d       	add	r24, r0
    4728:	91 1d       	adc	r25, r1
    472a:	11 24       	eor	r1, r1
    472c:	08 95       	ret

0000472e <__ashrdi3>:
    472e:	97 fb       	bst	r25, 7
    4730:	10 f8       	bld	r1, 0

00004732 <__lshrdi3>:
    4732:	16 94       	lsr	r1
    4734:	00 08       	sbc	r0, r0
    4736:	0f 93       	push	r16
    4738:	08 30       	cpi	r16, 0x08	; 8
    473a:	98 f0       	brcs	.+38     	; 0x4762 <__lshrdi3+0x30>
    473c:	08 50       	subi	r16, 0x08	; 8
    473e:	23 2f       	mov	r18, r19
    4740:	34 2f       	mov	r19, r20
    4742:	45 2f       	mov	r20, r21
    4744:	56 2f       	mov	r21, r22
    4746:	67 2f       	mov	r22, r23
    4748:	78 2f       	mov	r23, r24
    474a:	89 2f       	mov	r24, r25
    474c:	90 2d       	mov	r25, r0
    474e:	f4 cf       	rjmp	.-24     	; 0x4738 <__lshrdi3+0x6>
    4750:	05 94       	asr	r0
    4752:	97 95       	ror	r25
    4754:	87 95       	ror	r24
    4756:	77 95       	ror	r23
    4758:	67 95       	ror	r22
    475a:	57 95       	ror	r21
    475c:	47 95       	ror	r20
    475e:	37 95       	ror	r19
    4760:	27 95       	ror	r18
    4762:	0a 95       	dec	r16
    4764:	aa f7       	brpl	.-22     	; 0x4750 <__lshrdi3+0x1e>
    4766:	0f 91       	pop	r16
    4768:	08 95       	ret

0000476a <__adddi3>:
    476a:	2a 0d       	add	r18, r10
    476c:	3b 1d       	adc	r19, r11
    476e:	4c 1d       	adc	r20, r12
    4770:	5d 1d       	adc	r21, r13
    4772:	6e 1d       	adc	r22, r14
    4774:	7f 1d       	adc	r23, r15
    4776:	80 1f       	adc	r24, r16
    4778:	91 1f       	adc	r25, r17
    477a:	08 95       	ret

0000477c <__adddi3_s8>:
    477c:	00 24       	eor	r0, r0
    477e:	a7 fd       	sbrc	r26, 7
    4780:	00 94       	com	r0
    4782:	2a 0f       	add	r18, r26
    4784:	30 1d       	adc	r19, r0
    4786:	40 1d       	adc	r20, r0
    4788:	50 1d       	adc	r21, r0
    478a:	60 1d       	adc	r22, r0
    478c:	70 1d       	adc	r23, r0
    478e:	80 1d       	adc	r24, r0
    4790:	90 1d       	adc	r25, r0
    4792:	08 95       	ret

00004794 <__cmpdi2>:
    4794:	2a 15       	cp	r18, r10
    4796:	3b 05       	cpc	r19, r11
    4798:	4c 05       	cpc	r20, r12
    479a:	5d 05       	cpc	r21, r13
    479c:	6e 05       	cpc	r22, r14
    479e:	7f 05       	cpc	r23, r15
    47a0:	80 07       	cpc	r24, r16
    47a2:	91 07       	cpc	r25, r17
    47a4:	08 95       	ret

000047a6 <__umulhisi3>:
    47a6:	a2 9f       	mul	r26, r18
    47a8:	b0 01       	movw	r22, r0
    47aa:	b3 9f       	mul	r27, r19
    47ac:	c0 01       	movw	r24, r0
    47ae:	a3 9f       	mul	r26, r19
    47b0:	70 0d       	add	r23, r0
    47b2:	81 1d       	adc	r24, r1
    47b4:	11 24       	eor	r1, r1
    47b6:	91 1d       	adc	r25, r1
    47b8:	b2 9f       	mul	r27, r18
    47ba:	70 0d       	add	r23, r0
    47bc:	81 1d       	adc	r24, r1
    47be:	11 24       	eor	r1, r1
    47c0:	91 1d       	adc	r25, r1
    47c2:	08 95       	ret

000047c4 <malloc>:
    47c4:	0f 93       	push	r16
    47c6:	1f 93       	push	r17
    47c8:	cf 93       	push	r28
    47ca:	df 93       	push	r29
    47cc:	82 30       	cpi	r24, 0x02	; 2
    47ce:	91 05       	cpc	r25, r1
    47d0:	10 f4       	brcc	.+4      	; 0x47d6 <malloc+0x12>
    47d2:	82 e0       	ldi	r24, 0x02	; 2
    47d4:	90 e0       	ldi	r25, 0x00	; 0
    47d6:	e0 91 ff 4c 	lds	r30, 0x4CFF	; 0x804cff <__flp>
    47da:	f0 91 00 4d 	lds	r31, 0x4D00	; 0x804d00 <__flp+0x1>
    47de:	20 e0       	ldi	r18, 0x00	; 0
    47e0:	30 e0       	ldi	r19, 0x00	; 0
    47e2:	a0 e0       	ldi	r26, 0x00	; 0
    47e4:	b0 e0       	ldi	r27, 0x00	; 0
    47e6:	30 97       	sbiw	r30, 0x00	; 0
    47e8:	19 f1       	breq	.+70     	; 0x4830 <malloc+0x6c>
    47ea:	40 81       	ld	r20, Z
    47ec:	51 81       	ldd	r21, Z+1	; 0x01
    47ee:	02 81       	ldd	r16, Z+2	; 0x02
    47f0:	13 81       	ldd	r17, Z+3	; 0x03
    47f2:	48 17       	cp	r20, r24
    47f4:	59 07       	cpc	r21, r25
    47f6:	c8 f0       	brcs	.+50     	; 0x482a <malloc+0x66>
    47f8:	84 17       	cp	r24, r20
    47fa:	95 07       	cpc	r25, r21
    47fc:	69 f4       	brne	.+26     	; 0x4818 <malloc+0x54>
    47fe:	10 97       	sbiw	r26, 0x00	; 0
    4800:	31 f0       	breq	.+12     	; 0x480e <malloc+0x4a>
    4802:	12 96       	adiw	r26, 0x02	; 2
    4804:	0c 93       	st	X, r16
    4806:	12 97       	sbiw	r26, 0x02	; 2
    4808:	13 96       	adiw	r26, 0x03	; 3
    480a:	1c 93       	st	X, r17
    480c:	27 c0       	rjmp	.+78     	; 0x485c <malloc+0x98>
    480e:	00 93 ff 4c 	sts	0x4CFF, r16	; 0x804cff <__flp>
    4812:	10 93 00 4d 	sts	0x4D00, r17	; 0x804d00 <__flp+0x1>
    4816:	22 c0       	rjmp	.+68     	; 0x485c <malloc+0x98>
    4818:	21 15       	cp	r18, r1
    481a:	31 05       	cpc	r19, r1
    481c:	19 f0       	breq	.+6      	; 0x4824 <malloc+0x60>
    481e:	42 17       	cp	r20, r18
    4820:	53 07       	cpc	r21, r19
    4822:	18 f4       	brcc	.+6      	; 0x482a <malloc+0x66>
    4824:	9a 01       	movw	r18, r20
    4826:	bd 01       	movw	r22, r26
    4828:	ef 01       	movw	r28, r30
    482a:	df 01       	movw	r26, r30
    482c:	f8 01       	movw	r30, r16
    482e:	db cf       	rjmp	.-74     	; 0x47e6 <malloc+0x22>
    4830:	21 15       	cp	r18, r1
    4832:	31 05       	cpc	r19, r1
    4834:	f9 f0       	breq	.+62     	; 0x4874 <malloc+0xb0>
    4836:	28 1b       	sub	r18, r24
    4838:	39 0b       	sbc	r19, r25
    483a:	24 30       	cpi	r18, 0x04	; 4
    483c:	31 05       	cpc	r19, r1
    483e:	80 f4       	brcc	.+32     	; 0x4860 <malloc+0x9c>
    4840:	8a 81       	ldd	r24, Y+2	; 0x02
    4842:	9b 81       	ldd	r25, Y+3	; 0x03
    4844:	61 15       	cp	r22, r1
    4846:	71 05       	cpc	r23, r1
    4848:	21 f0       	breq	.+8      	; 0x4852 <malloc+0x8e>
    484a:	fb 01       	movw	r30, r22
    484c:	82 83       	std	Z+2, r24	; 0x02
    484e:	93 83       	std	Z+3, r25	; 0x03
    4850:	04 c0       	rjmp	.+8      	; 0x485a <malloc+0x96>
    4852:	80 93 ff 4c 	sts	0x4CFF, r24	; 0x804cff <__flp>
    4856:	90 93 00 4d 	sts	0x4D00, r25	; 0x804d00 <__flp+0x1>
    485a:	fe 01       	movw	r30, r28
    485c:	32 96       	adiw	r30, 0x02	; 2
    485e:	44 c0       	rjmp	.+136    	; 0x48e8 <malloc+0x124>
    4860:	fe 01       	movw	r30, r28
    4862:	e2 0f       	add	r30, r18
    4864:	f3 1f       	adc	r31, r19
    4866:	81 93       	st	Z+, r24
    4868:	91 93       	st	Z+, r25
    486a:	22 50       	subi	r18, 0x02	; 2
    486c:	31 09       	sbc	r19, r1
    486e:	28 83       	st	Y, r18
    4870:	39 83       	std	Y+1, r19	; 0x01
    4872:	3a c0       	rjmp	.+116    	; 0x48e8 <malloc+0x124>
    4874:	20 91 fd 4c 	lds	r18, 0x4CFD	; 0x804cfd <__brkval>
    4878:	30 91 fe 4c 	lds	r19, 0x4CFE	; 0x804cfe <__brkval+0x1>
    487c:	23 2b       	or	r18, r19
    487e:	41 f4       	brne	.+16     	; 0x4890 <malloc+0xcc>
    4880:	20 91 02 40 	lds	r18, 0x4002	; 0x804002 <__malloc_heap_start>
    4884:	30 91 03 40 	lds	r19, 0x4003	; 0x804003 <__malloc_heap_start+0x1>
    4888:	20 93 fd 4c 	sts	0x4CFD, r18	; 0x804cfd <__brkval>
    488c:	30 93 fe 4c 	sts	0x4CFE, r19	; 0x804cfe <__brkval+0x1>
    4890:	20 91 00 40 	lds	r18, 0x4000	; 0x804000 <__DATA_REGION_ORIGIN__>
    4894:	30 91 01 40 	lds	r19, 0x4001	; 0x804001 <__DATA_REGION_ORIGIN__+0x1>
    4898:	21 15       	cp	r18, r1
    489a:	31 05       	cpc	r19, r1
    489c:	41 f4       	brne	.+16     	; 0x48ae <malloc+0xea>
    489e:	2d b7       	in	r18, 0x3d	; 61
    48a0:	3e b7       	in	r19, 0x3e	; 62
    48a2:	40 91 04 40 	lds	r20, 0x4004	; 0x804004 <__malloc_margin>
    48a6:	50 91 05 40 	lds	r21, 0x4005	; 0x804005 <__malloc_margin+0x1>
    48aa:	24 1b       	sub	r18, r20
    48ac:	35 0b       	sbc	r19, r21
    48ae:	e0 91 fd 4c 	lds	r30, 0x4CFD	; 0x804cfd <__brkval>
    48b2:	f0 91 fe 4c 	lds	r31, 0x4CFE	; 0x804cfe <__brkval+0x1>
    48b6:	e2 17       	cp	r30, r18
    48b8:	f3 07       	cpc	r31, r19
    48ba:	a0 f4       	brcc	.+40     	; 0x48e4 <malloc+0x120>
    48bc:	2e 1b       	sub	r18, r30
    48be:	3f 0b       	sbc	r19, r31
    48c0:	28 17       	cp	r18, r24
    48c2:	39 07       	cpc	r19, r25
    48c4:	78 f0       	brcs	.+30     	; 0x48e4 <malloc+0x120>
    48c6:	ac 01       	movw	r20, r24
    48c8:	4e 5f       	subi	r20, 0xFE	; 254
    48ca:	5f 4f       	sbci	r21, 0xFF	; 255
    48cc:	24 17       	cp	r18, r20
    48ce:	35 07       	cpc	r19, r21
    48d0:	48 f0       	brcs	.+18     	; 0x48e4 <malloc+0x120>
    48d2:	4e 0f       	add	r20, r30
    48d4:	5f 1f       	adc	r21, r31
    48d6:	40 93 fd 4c 	sts	0x4CFD, r20	; 0x804cfd <__brkval>
    48da:	50 93 fe 4c 	sts	0x4CFE, r21	; 0x804cfe <__brkval+0x1>
    48de:	81 93       	st	Z+, r24
    48e0:	91 93       	st	Z+, r25
    48e2:	02 c0       	rjmp	.+4      	; 0x48e8 <malloc+0x124>
    48e4:	e0 e0       	ldi	r30, 0x00	; 0
    48e6:	f0 e0       	ldi	r31, 0x00	; 0
    48e8:	cf 01       	movw	r24, r30
    48ea:	df 91       	pop	r29
    48ec:	cf 91       	pop	r28
    48ee:	1f 91       	pop	r17
    48f0:	0f 91       	pop	r16
    48f2:	08 95       	ret

000048f4 <free>:
    48f4:	cf 93       	push	r28
    48f6:	df 93       	push	r29
    48f8:	00 97       	sbiw	r24, 0x00	; 0
    48fa:	09 f4       	brne	.+2      	; 0x48fe <free+0xa>
    48fc:	81 c0       	rjmp	.+258    	; 0x4a00 <free+0x10c>
    48fe:	fc 01       	movw	r30, r24
    4900:	32 97       	sbiw	r30, 0x02	; 2
    4902:	12 82       	std	Z+2, r1	; 0x02
    4904:	13 82       	std	Z+3, r1	; 0x03
    4906:	a0 91 ff 4c 	lds	r26, 0x4CFF	; 0x804cff <__flp>
    490a:	b0 91 00 4d 	lds	r27, 0x4D00	; 0x804d00 <__flp+0x1>
    490e:	10 97       	sbiw	r26, 0x00	; 0
    4910:	81 f4       	brne	.+32     	; 0x4932 <free+0x3e>
    4912:	20 81       	ld	r18, Z
    4914:	31 81       	ldd	r19, Z+1	; 0x01
    4916:	82 0f       	add	r24, r18
    4918:	93 1f       	adc	r25, r19
    491a:	20 91 fd 4c 	lds	r18, 0x4CFD	; 0x804cfd <__brkval>
    491e:	30 91 fe 4c 	lds	r19, 0x4CFE	; 0x804cfe <__brkval+0x1>
    4922:	28 17       	cp	r18, r24
    4924:	39 07       	cpc	r19, r25
    4926:	51 f5       	brne	.+84     	; 0x497c <free+0x88>
    4928:	e0 93 fd 4c 	sts	0x4CFD, r30	; 0x804cfd <__brkval>
    492c:	f0 93 fe 4c 	sts	0x4CFE, r31	; 0x804cfe <__brkval+0x1>
    4930:	67 c0       	rjmp	.+206    	; 0x4a00 <free+0x10c>
    4932:	ed 01       	movw	r28, r26
    4934:	20 e0       	ldi	r18, 0x00	; 0
    4936:	30 e0       	ldi	r19, 0x00	; 0
    4938:	ce 17       	cp	r28, r30
    493a:	df 07       	cpc	r29, r31
    493c:	40 f4       	brcc	.+16     	; 0x494e <free+0x5a>
    493e:	4a 81       	ldd	r20, Y+2	; 0x02
    4940:	5b 81       	ldd	r21, Y+3	; 0x03
    4942:	9e 01       	movw	r18, r28
    4944:	41 15       	cp	r20, r1
    4946:	51 05       	cpc	r21, r1
    4948:	f1 f0       	breq	.+60     	; 0x4986 <free+0x92>
    494a:	ea 01       	movw	r28, r20
    494c:	f5 cf       	rjmp	.-22     	; 0x4938 <free+0x44>
    494e:	c2 83       	std	Z+2, r28	; 0x02
    4950:	d3 83       	std	Z+3, r29	; 0x03
    4952:	40 81       	ld	r20, Z
    4954:	51 81       	ldd	r21, Z+1	; 0x01
    4956:	84 0f       	add	r24, r20
    4958:	95 1f       	adc	r25, r21
    495a:	c8 17       	cp	r28, r24
    495c:	d9 07       	cpc	r29, r25
    495e:	59 f4       	brne	.+22     	; 0x4976 <free+0x82>
    4960:	88 81       	ld	r24, Y
    4962:	99 81       	ldd	r25, Y+1	; 0x01
    4964:	84 0f       	add	r24, r20
    4966:	95 1f       	adc	r25, r21
    4968:	02 96       	adiw	r24, 0x02	; 2
    496a:	80 83       	st	Z, r24
    496c:	91 83       	std	Z+1, r25	; 0x01
    496e:	8a 81       	ldd	r24, Y+2	; 0x02
    4970:	9b 81       	ldd	r25, Y+3	; 0x03
    4972:	82 83       	std	Z+2, r24	; 0x02
    4974:	93 83       	std	Z+3, r25	; 0x03
    4976:	21 15       	cp	r18, r1
    4978:	31 05       	cpc	r19, r1
    497a:	29 f4       	brne	.+10     	; 0x4986 <free+0x92>
    497c:	e0 93 ff 4c 	sts	0x4CFF, r30	; 0x804cff <__flp>
    4980:	f0 93 00 4d 	sts	0x4D00, r31	; 0x804d00 <__flp+0x1>
    4984:	3d c0       	rjmp	.+122    	; 0x4a00 <free+0x10c>
    4986:	e9 01       	movw	r28, r18
    4988:	ea 83       	std	Y+2, r30	; 0x02
    498a:	fb 83       	std	Y+3, r31	; 0x03
    498c:	49 91       	ld	r20, Y+
    498e:	59 91       	ld	r21, Y+
    4990:	c4 0f       	add	r28, r20
    4992:	d5 1f       	adc	r29, r21
    4994:	ec 17       	cp	r30, r28
    4996:	fd 07       	cpc	r31, r29
    4998:	61 f4       	brne	.+24     	; 0x49b2 <free+0xbe>
    499a:	80 81       	ld	r24, Z
    499c:	91 81       	ldd	r25, Z+1	; 0x01
    499e:	84 0f       	add	r24, r20
    49a0:	95 1f       	adc	r25, r21
    49a2:	02 96       	adiw	r24, 0x02	; 2
    49a4:	e9 01       	movw	r28, r18
    49a6:	88 83       	st	Y, r24
    49a8:	99 83       	std	Y+1, r25	; 0x01
    49aa:	82 81       	ldd	r24, Z+2	; 0x02
    49ac:	93 81       	ldd	r25, Z+3	; 0x03
    49ae:	8a 83       	std	Y+2, r24	; 0x02
    49b0:	9b 83       	std	Y+3, r25	; 0x03
    49b2:	e0 e0       	ldi	r30, 0x00	; 0
    49b4:	f0 e0       	ldi	r31, 0x00	; 0
    49b6:	12 96       	adiw	r26, 0x02	; 2
    49b8:	8d 91       	ld	r24, X+
    49ba:	9c 91       	ld	r25, X
    49bc:	13 97       	sbiw	r26, 0x03	; 3
    49be:	00 97       	sbiw	r24, 0x00	; 0
    49c0:	19 f0       	breq	.+6      	; 0x49c8 <free+0xd4>
    49c2:	fd 01       	movw	r30, r26
    49c4:	dc 01       	movw	r26, r24
    49c6:	f7 cf       	rjmp	.-18     	; 0x49b6 <free+0xc2>
    49c8:	8d 91       	ld	r24, X+
    49ca:	9c 91       	ld	r25, X
    49cc:	11 97       	sbiw	r26, 0x01	; 1
    49ce:	9d 01       	movw	r18, r26
    49d0:	2e 5f       	subi	r18, 0xFE	; 254
    49d2:	3f 4f       	sbci	r19, 0xFF	; 255
    49d4:	82 0f       	add	r24, r18
    49d6:	93 1f       	adc	r25, r19
    49d8:	20 91 fd 4c 	lds	r18, 0x4CFD	; 0x804cfd <__brkval>
    49dc:	30 91 fe 4c 	lds	r19, 0x4CFE	; 0x804cfe <__brkval+0x1>
    49e0:	28 17       	cp	r18, r24
    49e2:	39 07       	cpc	r19, r25
    49e4:	69 f4       	brne	.+26     	; 0x4a00 <free+0x10c>
    49e6:	30 97       	sbiw	r30, 0x00	; 0
    49e8:	29 f4       	brne	.+10     	; 0x49f4 <free+0x100>
    49ea:	10 92 ff 4c 	sts	0x4CFF, r1	; 0x804cff <__flp>
    49ee:	10 92 00 4d 	sts	0x4D00, r1	; 0x804d00 <__flp+0x1>
    49f2:	02 c0       	rjmp	.+4      	; 0x49f8 <free+0x104>
    49f4:	12 82       	std	Z+2, r1	; 0x02
    49f6:	13 82       	std	Z+3, r1	; 0x03
    49f8:	a0 93 fd 4c 	sts	0x4CFD, r26	; 0x804cfd <__brkval>
    49fc:	b0 93 fe 4c 	sts	0x4CFE, r27	; 0x804cfe <__brkval+0x1>
    4a00:	df 91       	pop	r29
    4a02:	cf 91       	pop	r28
    4a04:	08 95       	ret

00004a06 <strtod>:
    4a06:	8f 92       	push	r8
    4a08:	9f 92       	push	r9
    4a0a:	af 92       	push	r10
    4a0c:	bf 92       	push	r11
    4a0e:	cf 92       	push	r12
    4a10:	df 92       	push	r13
    4a12:	ef 92       	push	r14
    4a14:	ff 92       	push	r15
    4a16:	0f 93       	push	r16
    4a18:	1f 93       	push	r17
    4a1a:	cf 93       	push	r28
    4a1c:	df 93       	push	r29
    4a1e:	ec 01       	movw	r28, r24
    4a20:	6b 01       	movw	r12, r22
    4a22:	61 15       	cp	r22, r1
    4a24:	71 05       	cpc	r23, r1
    4a26:	19 f0       	breq	.+6      	; 0x4a2e <strtod+0x28>
    4a28:	fb 01       	movw	r30, r22
    4a2a:	80 83       	st	Z, r24
    4a2c:	91 83       	std	Z+1, r25	; 0x01
    4a2e:	7e 01       	movw	r14, r28
    4a30:	ff ef       	ldi	r31, 0xFF	; 255
    4a32:	ef 1a       	sub	r14, r31
    4a34:	ff 0a       	sbc	r15, r31
    4a36:	08 81       	ld	r16, Y
    4a38:	80 2f       	mov	r24, r16
    4a3a:	90 e0       	ldi	r25, 0x00	; 0
    4a3c:	0e 94 7c 27 	call	0x4ef8	; 0x4ef8 <isspace>
    4a40:	89 2b       	or	r24, r25
    4a42:	11 f0       	breq	.+4      	; 0x4a48 <strtod+0x42>
    4a44:	e7 01       	movw	r28, r14
    4a46:	f3 cf       	rjmp	.-26     	; 0x4a2e <strtod+0x28>
    4a48:	0d 32       	cpi	r16, 0x2D	; 45
    4a4a:	39 f4       	brne	.+14     	; 0x4a5a <strtod+0x54>
    4a4c:	7e 01       	movw	r14, r28
    4a4e:	82 e0       	ldi	r24, 0x02	; 2
    4a50:	e8 0e       	add	r14, r24
    4a52:	f1 1c       	adc	r15, r1
    4a54:	09 81       	ldd	r16, Y+1	; 0x01
    4a56:	11 e0       	ldi	r17, 0x01	; 1
    4a58:	08 c0       	rjmp	.+16     	; 0x4a6a <strtod+0x64>
    4a5a:	0b 32       	cpi	r16, 0x2B	; 43
    4a5c:	29 f4       	brne	.+10     	; 0x4a68 <strtod+0x62>
    4a5e:	7e 01       	movw	r14, r28
    4a60:	92 e0       	ldi	r25, 0x02	; 2
    4a62:	e9 0e       	add	r14, r25
    4a64:	f1 1c       	adc	r15, r1
    4a66:	09 81       	ldd	r16, Y+1	; 0x01
    4a68:	10 e0       	ldi	r17, 0x00	; 0
    4a6a:	e7 01       	movw	r28, r14
    4a6c:	21 97       	sbiw	r28, 0x01	; 1
    4a6e:	43 e0       	ldi	r20, 0x03	; 3
    4a70:	50 e0       	ldi	r21, 0x00	; 0
    4a72:	60 e7       	ldi	r22, 0x70	; 112
    4a74:	72 e0       	ldi	r23, 0x02	; 2
    4a76:	ce 01       	movw	r24, r28
    4a78:	0e 94 85 27 	call	0x4f0a	; 0x4f0a <strncasecmp_P>
    4a7c:	89 2b       	or	r24, r25
    4a7e:	c1 f4       	brne	.+48     	; 0x4ab0 <strtod+0xaa>
    4a80:	23 96       	adiw	r28, 0x03	; 3
    4a82:	45 e0       	ldi	r20, 0x05	; 5
    4a84:	50 e0       	ldi	r21, 0x00	; 0
    4a86:	6b e6       	ldi	r22, 0x6B	; 107
    4a88:	72 e0       	ldi	r23, 0x02	; 2
    4a8a:	ce 01       	movw	r24, r28
    4a8c:	0e 94 85 27 	call	0x4f0a	; 0x4f0a <strncasecmp_P>
    4a90:	89 2b       	or	r24, r25
    4a92:	09 f4       	brne	.+2      	; 0x4a96 <strtod+0x90>
    4a94:	25 96       	adiw	r28, 0x05	; 5
    4a96:	c1 14       	cp	r12, r1
    4a98:	d1 04       	cpc	r13, r1
    4a9a:	19 f0       	breq	.+6      	; 0x4aa2 <strtod+0x9c>
    4a9c:	f6 01       	movw	r30, r12
    4a9e:	c0 83       	st	Z, r28
    4aa0:	d1 83       	std	Z+1, r29	; 0x01
    4aa2:	11 11       	cpse	r17, r1
    4aa4:	f6 c0       	rjmp	.+492    	; 0x4c92 <strtod+0x28c>
    4aa6:	60 e0       	ldi	r22, 0x00	; 0
    4aa8:	70 e0       	ldi	r23, 0x00	; 0
    4aaa:	80 e8       	ldi	r24, 0x80	; 128
    4aac:	9f e7       	ldi	r25, 0x7F	; 127
    4aae:	fa c0       	rjmp	.+500    	; 0x4ca4 <strtod+0x29e>
    4ab0:	43 e0       	ldi	r20, 0x03	; 3
    4ab2:	50 e0       	ldi	r21, 0x00	; 0
    4ab4:	68 e6       	ldi	r22, 0x68	; 104
    4ab6:	72 e0       	ldi	r23, 0x02	; 2
    4ab8:	ce 01       	movw	r24, r28
    4aba:	0e 94 85 27 	call	0x4f0a	; 0x4f0a <strncasecmp_P>
    4abe:	89 2b       	or	r24, r25
    4ac0:	59 f4       	brne	.+22     	; 0x4ad8 <strtod+0xd2>
    4ac2:	c1 14       	cp	r12, r1
    4ac4:	d1 04       	cpc	r13, r1
    4ac6:	09 f4       	brne	.+2      	; 0x4aca <strtod+0xc4>
    4ac8:	e9 c0       	rjmp	.+466    	; 0x4c9c <strtod+0x296>
    4aca:	f2 e0       	ldi	r31, 0x02	; 2
    4acc:	ef 0e       	add	r14, r31
    4ace:	f1 1c       	adc	r15, r1
    4ad0:	f6 01       	movw	r30, r12
    4ad2:	e0 82       	st	Z, r14
    4ad4:	f1 82       	std	Z+1, r15	; 0x01
    4ad6:	e2 c0       	rjmp	.+452    	; 0x4c9c <strtod+0x296>
    4ad8:	20 e0       	ldi	r18, 0x00	; 0
    4ada:	30 e0       	ldi	r19, 0x00	; 0
    4adc:	a9 01       	movw	r20, r18
    4ade:	c0 e0       	ldi	r28, 0x00	; 0
    4ae0:	d0 e0       	ldi	r29, 0x00	; 0
    4ae2:	f7 01       	movw	r30, r14
    4ae4:	60 ed       	ldi	r22, 0xD0	; 208
    4ae6:	a6 2e       	mov	r10, r22
    4ae8:	a0 0e       	add	r10, r16
    4aea:	89 e0       	ldi	r24, 0x09	; 9
    4aec:	8a 15       	cp	r24, r10
    4aee:	30 f1       	brcs	.+76     	; 0x4b3c <strtod+0x136>
    4af0:	91 2f       	mov	r25, r17
    4af2:	92 60       	ori	r25, 0x02	; 2
    4af4:	b9 2e       	mov	r11, r25
    4af6:	81 2f       	mov	r24, r17
    4af8:	88 70       	andi	r24, 0x08	; 8
    4afa:	12 ff       	sbrs	r17, 2
    4afc:	04 c0       	rjmp	.+8      	; 0x4b06 <strtod+0x100>
    4afe:	81 11       	cpse	r24, r1
    4b00:	24 c0       	rjmp	.+72     	; 0x4b4a <strtod+0x144>
    4b02:	21 96       	adiw	r28, 0x01	; 1
    4b04:	22 c0       	rjmp	.+68     	; 0x4b4a <strtod+0x144>
    4b06:	81 11       	cpse	r24, r1
    4b08:	21 97       	sbiw	r28, 0x01	; 1
    4b0a:	a5 e0       	ldi	r26, 0x05	; 5
    4b0c:	b0 e0       	ldi	r27, 0x00	; 0
    4b0e:	0e 94 8c 23 	call	0x4718	; 0x4718 <__muluhisi3>
    4b12:	dc 01       	movw	r26, r24
    4b14:	cb 01       	movw	r24, r22
    4b16:	88 0f       	add	r24, r24
    4b18:	99 1f       	adc	r25, r25
    4b1a:	aa 1f       	adc	r26, r26
    4b1c:	bb 1f       	adc	r27, r27
    4b1e:	9c 01       	movw	r18, r24
    4b20:	ad 01       	movw	r20, r26
    4b22:	2a 0d       	add	r18, r10
    4b24:	31 1d       	adc	r19, r1
    4b26:	41 1d       	adc	r20, r1
    4b28:	51 1d       	adc	r21, r1
    4b2a:	28 39       	cpi	r18, 0x98	; 152
    4b2c:	89 e9       	ldi	r24, 0x99	; 153
    4b2e:	38 07       	cpc	r19, r24
    4b30:	48 07       	cpc	r20, r24
    4b32:	89 e1       	ldi	r24, 0x19	; 25
    4b34:	58 07       	cpc	r21, r24
    4b36:	48 f0       	brcs	.+18     	; 0x4b4a <strtod+0x144>
    4b38:	16 60       	ori	r17, 0x06	; 6
    4b3a:	06 c0       	rjmp	.+12     	; 0x4b48 <strtod+0x142>
    4b3c:	9e ef       	ldi	r25, 0xFE	; 254
    4b3e:	a9 12       	cpse	r10, r25
    4b40:	0a c0       	rjmp	.+20     	; 0x4b56 <strtod+0x150>
    4b42:	13 fd       	sbrc	r17, 3
    4b44:	40 c0       	rjmp	.+128    	; 0x4bc6 <strtod+0x1c0>
    4b46:	18 60       	ori	r17, 0x08	; 8
    4b48:	b1 2e       	mov	r11, r17
    4b4a:	8f ef       	ldi	r24, 0xFF	; 255
    4b4c:	e8 1a       	sub	r14, r24
    4b4e:	f8 0a       	sbc	r15, r24
    4b50:	00 81       	ld	r16, Z
    4b52:	1b 2d       	mov	r17, r11
    4b54:	c6 cf       	rjmp	.-116    	; 0x4ae2 <strtod+0xdc>
    4b56:	80 2f       	mov	r24, r16
    4b58:	8f 7d       	andi	r24, 0xDF	; 223
    4b5a:	85 34       	cpi	r24, 0x45	; 69
    4b5c:	a1 f5       	brne	.+104    	; 0x4bc6 <strtod+0x1c0>
    4b5e:	80 81       	ld	r24, Z
    4b60:	8d 32       	cpi	r24, 0x2D	; 45
    4b62:	11 f4       	brne	.+4      	; 0x4b68 <strtod+0x162>
    4b64:	10 61       	ori	r17, 0x10	; 16
    4b66:	06 c0       	rjmp	.+12     	; 0x4b74 <strtod+0x16e>
    4b68:	8b 32       	cpi	r24, 0x2B	; 43
    4b6a:	21 f0       	breq	.+8      	; 0x4b74 <strtod+0x16e>
    4b6c:	31 96       	adiw	r30, 0x01	; 1
    4b6e:	61 e0       	ldi	r22, 0x01	; 1
    4b70:	70 e0       	ldi	r23, 0x00	; 0
    4b72:	04 c0       	rjmp	.+8      	; 0x4b7c <strtod+0x176>
    4b74:	81 81       	ldd	r24, Z+1	; 0x01
    4b76:	32 96       	adiw	r30, 0x02	; 2
    4b78:	62 e0       	ldi	r22, 0x02	; 2
    4b7a:	70 e0       	ldi	r23, 0x00	; 0
    4b7c:	80 53       	subi	r24, 0x30	; 48
    4b7e:	8a 30       	cpi	r24, 0x0A	; 10
    4b80:	18 f0       	brcs	.+6      	; 0x4b88 <strtod+0x182>
    4b82:	e6 1b       	sub	r30, r22
    4b84:	f7 0b       	sbc	r31, r23
    4b86:	1f c0       	rjmp	.+62     	; 0x4bc6 <strtod+0x1c0>
    4b88:	60 e0       	ldi	r22, 0x00	; 0
    4b8a:	70 e0       	ldi	r23, 0x00	; 0
    4b8c:	60 38       	cpi	r22, 0x80	; 128
    4b8e:	9c e0       	ldi	r25, 0x0C	; 12
    4b90:	79 07       	cpc	r23, r25
    4b92:	5c f4       	brge	.+22     	; 0x4baa <strtod+0x1a4>
    4b94:	db 01       	movw	r26, r22
    4b96:	aa 0f       	add	r26, r26
    4b98:	bb 1f       	adc	r27, r27
    4b9a:	aa 0f       	add	r26, r26
    4b9c:	bb 1f       	adc	r27, r27
    4b9e:	6a 0f       	add	r22, r26
    4ba0:	7b 1f       	adc	r23, r27
    4ba2:	66 0f       	add	r22, r22
    4ba4:	77 1f       	adc	r23, r23
    4ba6:	68 0f       	add	r22, r24
    4ba8:	71 1d       	adc	r23, r1
    4baa:	31 96       	adiw	r30, 0x01	; 1
    4bac:	df 01       	movw	r26, r30
    4bae:	11 97       	sbiw	r26, 0x01	; 1
    4bb0:	8c 91       	ld	r24, X
    4bb2:	80 53       	subi	r24, 0x30	; 48
    4bb4:	8a 30       	cpi	r24, 0x0A	; 10
    4bb6:	50 f3       	brcs	.-44     	; 0x4b8c <strtod+0x186>
    4bb8:	14 ff       	sbrs	r17, 4
    4bba:	03 c0       	rjmp	.+6      	; 0x4bc2 <strtod+0x1bc>
    4bbc:	71 95       	neg	r23
    4bbe:	61 95       	neg	r22
    4bc0:	71 09       	sbc	r23, r1
    4bc2:	c6 0f       	add	r28, r22
    4bc4:	d7 1f       	adc	r29, r23
    4bc6:	11 ff       	sbrs	r17, 1
    4bc8:	08 c0       	rjmp	.+16     	; 0x4bda <strtod+0x1d4>
    4bca:	c1 14       	cp	r12, r1
    4bcc:	d1 04       	cpc	r13, r1
    4bce:	29 f0       	breq	.+10     	; 0x4bda <strtod+0x1d4>
    4bd0:	cf 01       	movw	r24, r30
    4bd2:	01 97       	sbiw	r24, 0x01	; 1
    4bd4:	f6 01       	movw	r30, r12
    4bd6:	80 83       	st	Z, r24
    4bd8:	91 83       	std	Z+1, r25	; 0x01
    4bda:	ca 01       	movw	r24, r20
    4bdc:	b9 01       	movw	r22, r18
    4bde:	0e 94 54 1c 	call	0x38a8	; 0x38a8 <__floatunsisf>
    4be2:	21 2f       	mov	r18, r17
    4be4:	23 70       	andi	r18, 0x03	; 3
    4be6:	23 30       	cpi	r18, 0x03	; 3
    4be8:	19 f0       	breq	.+6      	; 0x4bf0 <strtod+0x1ea>
    4bea:	4b 01       	movw	r8, r22
    4bec:	5c 01       	movw	r10, r24
    4bee:	06 c0       	rjmp	.+12     	; 0x4bfc <strtod+0x1f6>
    4bf0:	4b 01       	movw	r8, r22
    4bf2:	5c 01       	movw	r10, r24
    4bf4:	b7 fa       	bst	r11, 7
    4bf6:	b0 94       	com	r11
    4bf8:	b7 f8       	bld	r11, 7
    4bfa:	b0 94       	com	r11
    4bfc:	20 e0       	ldi	r18, 0x00	; 0
    4bfe:	30 e0       	ldi	r19, 0x00	; 0
    4c00:	a9 01       	movw	r20, r18
    4c02:	c5 01       	movw	r24, r10
    4c04:	b4 01       	movw	r22, r8
    4c06:	0e 94 a2 1b 	call	0x3744	; 0x3744 <__cmpsf2>
    4c0a:	88 23       	and	r24, r24
    4c0c:	09 f4       	brne	.+2      	; 0x4c10 <strtod+0x20a>
    4c0e:	3e c0       	rjmp	.+124    	; 0x4c8c <strtod+0x286>
    4c10:	d7 ff       	sbrs	r29, 7
    4c12:	06 c0       	rjmp	.+12     	; 0x4c20 <strtod+0x21a>
    4c14:	d1 95       	neg	r29
    4c16:	c1 95       	neg	r28
    4c18:	d1 09       	sbc	r29, r1
    4c1a:	07 e8       	ldi	r16, 0x87	; 135
    4c1c:	12 e0       	ldi	r17, 0x02	; 2
    4c1e:	02 c0       	rjmp	.+4      	; 0x4c24 <strtod+0x21e>
    4c20:	0f e9       	ldi	r16, 0x9F	; 159
    4c22:	12 e0       	ldi	r17, 0x02	; 2
    4c24:	68 01       	movw	r12, r16
    4c26:	f8 e1       	ldi	r31, 0x18	; 24
    4c28:	cf 1a       	sub	r12, r31
    4c2a:	d1 08       	sbc	r13, r1
    4c2c:	90 e2       	ldi	r25, 0x20	; 32
    4c2e:	e9 2e       	mov	r14, r25
    4c30:	f1 2c       	mov	r15, r1
    4c32:	ce 15       	cp	r28, r14
    4c34:	df 05       	cpc	r29, r15
    4c36:	74 f0       	brlt	.+28     	; 0x4c54 <strtod+0x24e>
    4c38:	f8 01       	movw	r30, r16
    4c3a:	25 91       	lpm	r18, Z+
    4c3c:	35 91       	lpm	r19, Z+
    4c3e:	45 91       	lpm	r20, Z+
    4c40:	54 91       	lpm	r21, Z
    4c42:	c5 01       	movw	r24, r10
    4c44:	b4 01       	movw	r22, r8
    4c46:	0e 94 79 1d 	call	0x3af2	; 0x3af2 <__mulsf3>
    4c4a:	4b 01       	movw	r8, r22
    4c4c:	5c 01       	movw	r10, r24
    4c4e:	ce 19       	sub	r28, r14
    4c50:	df 09       	sbc	r29, r15
    4c52:	ef cf       	rjmp	.-34     	; 0x4c32 <strtod+0x22c>
    4c54:	04 50       	subi	r16, 0x04	; 4
    4c56:	11 09       	sbc	r17, r1
    4c58:	f5 94       	asr	r15
    4c5a:	e7 94       	ror	r14
    4c5c:	0c 15       	cp	r16, r12
    4c5e:	1d 05       	cpc	r17, r13
    4c60:	41 f7       	brne	.-48     	; 0x4c32 <strtod+0x22c>
    4c62:	8a 2d       	mov	r24, r10
    4c64:	88 0f       	add	r24, r24
    4c66:	8b 2d       	mov	r24, r11
    4c68:	88 1f       	adc	r24, r24
    4c6a:	8f 3f       	cpi	r24, 0xFF	; 255
    4c6c:	49 f0       	breq	.+18     	; 0x4c80 <strtod+0x27a>
    4c6e:	20 e0       	ldi	r18, 0x00	; 0
    4c70:	30 e0       	ldi	r19, 0x00	; 0
    4c72:	a9 01       	movw	r20, r18
    4c74:	c5 01       	movw	r24, r10
    4c76:	b4 01       	movw	r22, r8
    4c78:	0e 94 a2 1b 	call	0x3744	; 0x3744 <__cmpsf2>
    4c7c:	81 11       	cpse	r24, r1
    4c7e:	06 c0       	rjmp	.+12     	; 0x4c8c <strtod+0x286>
    4c80:	82 e2       	ldi	r24, 0x22	; 34
    4c82:	90 e0       	ldi	r25, 0x00	; 0
    4c84:	80 93 01 4d 	sts	0x4D01, r24	; 0x804d01 <errno>
    4c88:	90 93 02 4d 	sts	0x4D02, r25	; 0x804d02 <errno+0x1>
    4c8c:	c5 01       	movw	r24, r10
    4c8e:	b4 01       	movw	r22, r8
    4c90:	09 c0       	rjmp	.+18     	; 0x4ca4 <strtod+0x29e>
    4c92:	60 e0       	ldi	r22, 0x00	; 0
    4c94:	70 e0       	ldi	r23, 0x00	; 0
    4c96:	80 e8       	ldi	r24, 0x80	; 128
    4c98:	9f ef       	ldi	r25, 0xFF	; 255
    4c9a:	04 c0       	rjmp	.+8      	; 0x4ca4 <strtod+0x29e>
    4c9c:	60 e0       	ldi	r22, 0x00	; 0
    4c9e:	70 e0       	ldi	r23, 0x00	; 0
    4ca0:	80 ec       	ldi	r24, 0xC0	; 192
    4ca2:	9f e7       	ldi	r25, 0x7F	; 127
    4ca4:	df 91       	pop	r29
    4ca6:	cf 91       	pop	r28
    4ca8:	1f 91       	pop	r17
    4caa:	0f 91       	pop	r16
    4cac:	ff 90       	pop	r15
    4cae:	ef 90       	pop	r14
    4cb0:	df 90       	pop	r13
    4cb2:	cf 90       	pop	r12
    4cb4:	bf 90       	pop	r11
    4cb6:	af 90       	pop	r10
    4cb8:	9f 90       	pop	r9
    4cba:	8f 90       	pop	r8
    4cbc:	08 95       	ret

00004cbe <atoi>:
    4cbe:	fc 01       	movw	r30, r24
    4cc0:	88 27       	eor	r24, r24
    4cc2:	99 27       	eor	r25, r25
    4cc4:	e8 94       	clt
    4cc6:	21 91       	ld	r18, Z+
    4cc8:	20 32       	cpi	r18, 0x20	; 32
    4cca:	e9 f3       	breq	.-6      	; 0x4cc6 <atoi+0x8>
    4ccc:	29 30       	cpi	r18, 0x09	; 9
    4cce:	10 f0       	brcs	.+4      	; 0x4cd4 <atoi+0x16>
    4cd0:	2e 30       	cpi	r18, 0x0E	; 14
    4cd2:	c8 f3       	brcs	.-14     	; 0x4cc6 <atoi+0x8>
    4cd4:	2b 32       	cpi	r18, 0x2B	; 43
    4cd6:	41 f0       	breq	.+16     	; 0x4ce8 <atoi+0x2a>
    4cd8:	2d 32       	cpi	r18, 0x2D	; 45
    4cda:	39 f4       	brne	.+14     	; 0x4cea <atoi+0x2c>
    4cdc:	68 94       	set
    4cde:	04 c0       	rjmp	.+8      	; 0x4ce8 <atoi+0x2a>
    4ce0:	0e 94 c8 27 	call	0x4f90	; 0x4f90 <__mulhi_const_10>
    4ce4:	82 0f       	add	r24, r18
    4ce6:	91 1d       	adc	r25, r1
    4ce8:	21 91       	ld	r18, Z+
    4cea:	20 53       	subi	r18, 0x30	; 48
    4cec:	2a 30       	cpi	r18, 0x0A	; 10
    4cee:	c0 f3       	brcs	.-16     	; 0x4ce0 <atoi+0x22>
    4cf0:	1e f4       	brtc	.+6      	; 0x4cf8 <atoi+0x3a>
    4cf2:	90 95       	com	r25
    4cf4:	81 95       	neg	r24
    4cf6:	9f 4f       	sbci	r25, 0xFF	; 255
    4cf8:	08 95       	ret

00004cfa <atol>:
    4cfa:	1f 93       	push	r17
    4cfc:	fc 01       	movw	r30, r24
    4cfe:	99 27       	eor	r25, r25
    4d00:	88 27       	eor	r24, r24
    4d02:	bc 01       	movw	r22, r24
    4d04:	e8 94       	clt
    4d06:	11 91       	ld	r17, Z+
    4d08:	10 32       	cpi	r17, 0x20	; 32
    4d0a:	e9 f3       	breq	.-6      	; 0x4d06 <atol+0xc>
    4d0c:	19 30       	cpi	r17, 0x09	; 9
    4d0e:	10 f0       	brcs	.+4      	; 0x4d14 <atol+0x1a>
    4d10:	1e 30       	cpi	r17, 0x0E	; 14
    4d12:	c8 f3       	brcs	.-14     	; 0x4d06 <atol+0xc>
    4d14:	1b 32       	cpi	r17, 0x2B	; 43
    4d16:	51 f0       	breq	.+20     	; 0x4d2c <atol+0x32>
    4d18:	1d 32       	cpi	r17, 0x2D	; 45
    4d1a:	49 f4       	brne	.+18     	; 0x4d2e <atol+0x34>
    4d1c:	68 94       	set
    4d1e:	06 c0       	rjmp	.+12     	; 0x4d2c <atol+0x32>
    4d20:	0e 94 b3 27 	call	0x4f66	; 0x4f66 <__mulsi_const_10>
    4d24:	61 0f       	add	r22, r17
    4d26:	71 1d       	adc	r23, r1
    4d28:	81 1d       	adc	r24, r1
    4d2a:	91 1d       	adc	r25, r1
    4d2c:	11 91       	ld	r17, Z+
    4d2e:	10 53       	subi	r17, 0x30	; 48
    4d30:	1a 30       	cpi	r17, 0x0A	; 10
    4d32:	b0 f3       	brcs	.-20     	; 0x4d20 <atol+0x26>
    4d34:	3e f4       	brtc	.+14     	; 0x4d44 <atol+0x4a>
    4d36:	90 95       	com	r25
    4d38:	80 95       	com	r24
    4d3a:	70 95       	com	r23
    4d3c:	61 95       	neg	r22
    4d3e:	7f 4f       	sbci	r23, 0xFF	; 255
    4d40:	8f 4f       	sbci	r24, 0xFF	; 255
    4d42:	9f 4f       	sbci	r25, 0xFF	; 255
    4d44:	1f 91       	pop	r17
    4d46:	08 95       	ret

00004d48 <__ftoa_engine>:
    4d48:	28 30       	cpi	r18, 0x08	; 8
    4d4a:	08 f0       	brcs	.+2      	; 0x4d4e <__ftoa_engine+0x6>
    4d4c:	27 e0       	ldi	r18, 0x07	; 7
    4d4e:	33 27       	eor	r19, r19
    4d50:	da 01       	movw	r26, r20
    4d52:	99 0f       	add	r25, r25
    4d54:	31 1d       	adc	r19, r1
    4d56:	87 fd       	sbrc	r24, 7
    4d58:	91 60       	ori	r25, 0x01	; 1
    4d5a:	00 96       	adiw	r24, 0x00	; 0
    4d5c:	61 05       	cpc	r22, r1
    4d5e:	71 05       	cpc	r23, r1
    4d60:	39 f4       	brne	.+14     	; 0x4d70 <__ftoa_engine+0x28>
    4d62:	32 60       	ori	r19, 0x02	; 2
    4d64:	2e 5f       	subi	r18, 0xFE	; 254
    4d66:	3d 93       	st	X+, r19
    4d68:	30 e3       	ldi	r19, 0x30	; 48
    4d6a:	2a 95       	dec	r18
    4d6c:	e1 f7       	brne	.-8      	; 0x4d66 <__ftoa_engine+0x1e>
    4d6e:	08 95       	ret
    4d70:	9f 3f       	cpi	r25, 0xFF	; 255
    4d72:	30 f0       	brcs	.+12     	; 0x4d80 <__ftoa_engine+0x38>
    4d74:	80 38       	cpi	r24, 0x80	; 128
    4d76:	71 05       	cpc	r23, r1
    4d78:	61 05       	cpc	r22, r1
    4d7a:	09 f0       	breq	.+2      	; 0x4d7e <__ftoa_engine+0x36>
    4d7c:	3c 5f       	subi	r19, 0xFC	; 252
    4d7e:	3c 5f       	subi	r19, 0xFC	; 252
    4d80:	3d 93       	st	X+, r19
    4d82:	91 30       	cpi	r25, 0x01	; 1
    4d84:	08 f0       	brcs	.+2      	; 0x4d88 <__ftoa_engine+0x40>
    4d86:	80 68       	ori	r24, 0x80	; 128
    4d88:	91 1d       	adc	r25, r1
    4d8a:	df 93       	push	r29
    4d8c:	cf 93       	push	r28
    4d8e:	1f 93       	push	r17
    4d90:	0f 93       	push	r16
    4d92:	ff 92       	push	r15
    4d94:	ef 92       	push	r14
    4d96:	19 2f       	mov	r17, r25
    4d98:	98 7f       	andi	r25, 0xF8	; 248
    4d9a:	96 95       	lsr	r25
    4d9c:	e9 2f       	mov	r30, r25
    4d9e:	96 95       	lsr	r25
    4da0:	96 95       	lsr	r25
    4da2:	e9 0f       	add	r30, r25
    4da4:	ff 27       	eor	r31, r31
    4da6:	e3 50       	subi	r30, 0x03	; 3
    4da8:	fd 4f       	sbci	r31, 0xFD	; 253
    4daa:	99 27       	eor	r25, r25
    4dac:	33 27       	eor	r19, r19
    4dae:	ee 24       	eor	r14, r14
    4db0:	ff 24       	eor	r15, r15
    4db2:	a7 01       	movw	r20, r14
    4db4:	e7 01       	movw	r28, r14
    4db6:	05 90       	lpm	r0, Z+
    4db8:	08 94       	sec
    4dba:	07 94       	ror	r0
    4dbc:	28 f4       	brcc	.+10     	; 0x4dc8 <__ftoa_engine+0x80>
    4dbe:	36 0f       	add	r19, r22
    4dc0:	e7 1e       	adc	r14, r23
    4dc2:	f8 1e       	adc	r15, r24
    4dc4:	49 1f       	adc	r20, r25
    4dc6:	51 1d       	adc	r21, r1
    4dc8:	66 0f       	add	r22, r22
    4dca:	77 1f       	adc	r23, r23
    4dcc:	88 1f       	adc	r24, r24
    4dce:	99 1f       	adc	r25, r25
    4dd0:	06 94       	lsr	r0
    4dd2:	a1 f7       	brne	.-24     	; 0x4dbc <__ftoa_engine+0x74>
    4dd4:	05 90       	lpm	r0, Z+
    4dd6:	07 94       	ror	r0
    4dd8:	28 f4       	brcc	.+10     	; 0x4de4 <__ftoa_engine+0x9c>
    4dda:	e7 0e       	add	r14, r23
    4ddc:	f8 1e       	adc	r15, r24
    4dde:	49 1f       	adc	r20, r25
    4de0:	56 1f       	adc	r21, r22
    4de2:	c1 1d       	adc	r28, r1
    4de4:	77 0f       	add	r23, r23
    4de6:	88 1f       	adc	r24, r24
    4de8:	99 1f       	adc	r25, r25
    4dea:	66 1f       	adc	r22, r22
    4dec:	06 94       	lsr	r0
    4dee:	a1 f7       	brne	.-24     	; 0x4dd8 <__ftoa_engine+0x90>
    4df0:	05 90       	lpm	r0, Z+
    4df2:	07 94       	ror	r0
    4df4:	28 f4       	brcc	.+10     	; 0x4e00 <__ftoa_engine+0xb8>
    4df6:	f8 0e       	add	r15, r24
    4df8:	49 1f       	adc	r20, r25
    4dfa:	56 1f       	adc	r21, r22
    4dfc:	c7 1f       	adc	r28, r23
    4dfe:	d1 1d       	adc	r29, r1
    4e00:	88 0f       	add	r24, r24
    4e02:	99 1f       	adc	r25, r25
    4e04:	66 1f       	adc	r22, r22
    4e06:	77 1f       	adc	r23, r23
    4e08:	06 94       	lsr	r0
    4e0a:	a1 f7       	brne	.-24     	; 0x4df4 <__ftoa_engine+0xac>
    4e0c:	05 90       	lpm	r0, Z+
    4e0e:	07 94       	ror	r0
    4e10:	20 f4       	brcc	.+8      	; 0x4e1a <__ftoa_engine+0xd2>
    4e12:	49 0f       	add	r20, r25
    4e14:	56 1f       	adc	r21, r22
    4e16:	c7 1f       	adc	r28, r23
    4e18:	d8 1f       	adc	r29, r24
    4e1a:	99 0f       	add	r25, r25
    4e1c:	66 1f       	adc	r22, r22
    4e1e:	77 1f       	adc	r23, r23
    4e20:	88 1f       	adc	r24, r24
    4e22:	06 94       	lsr	r0
    4e24:	a9 f7       	brne	.-22     	; 0x4e10 <__ftoa_engine+0xc8>
    4e26:	84 91       	lpm	r24, Z
    4e28:	10 95       	com	r17
    4e2a:	17 70       	andi	r17, 0x07	; 7
    4e2c:	41 f0       	breq	.+16     	; 0x4e3e <__ftoa_engine+0xf6>
    4e2e:	d6 95       	lsr	r29
    4e30:	c7 95       	ror	r28
    4e32:	57 95       	ror	r21
    4e34:	47 95       	ror	r20
    4e36:	f7 94       	ror	r15
    4e38:	e7 94       	ror	r14
    4e3a:	1a 95       	dec	r17
    4e3c:	c1 f7       	brne	.-16     	; 0x4e2e <__ftoa_engine+0xe6>
    4e3e:	e3 ea       	ldi	r30, 0xA3	; 163
    4e40:	f2 e0       	ldi	r31, 0x02	; 2
    4e42:	68 94       	set
    4e44:	15 90       	lpm	r1, Z+
    4e46:	15 91       	lpm	r17, Z+
    4e48:	35 91       	lpm	r19, Z+
    4e4a:	65 91       	lpm	r22, Z+
    4e4c:	95 91       	lpm	r25, Z+
    4e4e:	05 90       	lpm	r0, Z+
    4e50:	7f e2       	ldi	r23, 0x2F	; 47
    4e52:	73 95       	inc	r23
    4e54:	e1 18       	sub	r14, r1
    4e56:	f1 0a       	sbc	r15, r17
    4e58:	43 0b       	sbc	r20, r19
    4e5a:	56 0b       	sbc	r21, r22
    4e5c:	c9 0b       	sbc	r28, r25
    4e5e:	d0 09       	sbc	r29, r0
    4e60:	c0 f7       	brcc	.-16     	; 0x4e52 <__ftoa_engine+0x10a>
    4e62:	e1 0c       	add	r14, r1
    4e64:	f1 1e       	adc	r15, r17
    4e66:	43 1f       	adc	r20, r19
    4e68:	56 1f       	adc	r21, r22
    4e6a:	c9 1f       	adc	r28, r25
    4e6c:	d0 1d       	adc	r29, r0
    4e6e:	7e f4       	brtc	.+30     	; 0x4e8e <__ftoa_engine+0x146>
    4e70:	70 33       	cpi	r23, 0x30	; 48
    4e72:	11 f4       	brne	.+4      	; 0x4e78 <__ftoa_engine+0x130>
    4e74:	8a 95       	dec	r24
    4e76:	e6 cf       	rjmp	.-52     	; 0x4e44 <__ftoa_engine+0xfc>
    4e78:	e8 94       	clt
    4e7a:	01 50       	subi	r16, 0x01	; 1
    4e7c:	30 f0       	brcs	.+12     	; 0x4e8a <__ftoa_engine+0x142>
    4e7e:	08 0f       	add	r16, r24
    4e80:	0a f4       	brpl	.+2      	; 0x4e84 <__ftoa_engine+0x13c>
    4e82:	00 27       	eor	r16, r16
    4e84:	02 17       	cp	r16, r18
    4e86:	08 f4       	brcc	.+2      	; 0x4e8a <__ftoa_engine+0x142>
    4e88:	20 2f       	mov	r18, r16
    4e8a:	23 95       	inc	r18
    4e8c:	02 2f       	mov	r16, r18
    4e8e:	7a 33       	cpi	r23, 0x3A	; 58
    4e90:	28 f0       	brcs	.+10     	; 0x4e9c <__ftoa_engine+0x154>
    4e92:	79 e3       	ldi	r23, 0x39	; 57
    4e94:	7d 93       	st	X+, r23
    4e96:	2a 95       	dec	r18
    4e98:	e9 f7       	brne	.-6      	; 0x4e94 <__ftoa_engine+0x14c>
    4e9a:	10 c0       	rjmp	.+32     	; 0x4ebc <__ftoa_engine+0x174>
    4e9c:	7d 93       	st	X+, r23
    4e9e:	2a 95       	dec	r18
    4ea0:	89 f6       	brne	.-94     	; 0x4e44 <__ftoa_engine+0xfc>
    4ea2:	06 94       	lsr	r0
    4ea4:	97 95       	ror	r25
    4ea6:	67 95       	ror	r22
    4ea8:	37 95       	ror	r19
    4eaa:	17 95       	ror	r17
    4eac:	17 94       	ror	r1
    4eae:	e1 18       	sub	r14, r1
    4eb0:	f1 0a       	sbc	r15, r17
    4eb2:	43 0b       	sbc	r20, r19
    4eb4:	56 0b       	sbc	r21, r22
    4eb6:	c9 0b       	sbc	r28, r25
    4eb8:	d0 09       	sbc	r29, r0
    4eba:	98 f0       	brcs	.+38     	; 0x4ee2 <__ftoa_engine+0x19a>
    4ebc:	23 95       	inc	r18
    4ebe:	7e 91       	ld	r23, -X
    4ec0:	73 95       	inc	r23
    4ec2:	7a 33       	cpi	r23, 0x3A	; 58
    4ec4:	08 f0       	brcs	.+2      	; 0x4ec8 <__ftoa_engine+0x180>
    4ec6:	70 e3       	ldi	r23, 0x30	; 48
    4ec8:	7c 93       	st	X, r23
    4eca:	20 13       	cpse	r18, r16
    4ecc:	b8 f7       	brcc	.-18     	; 0x4ebc <__ftoa_engine+0x174>
    4ece:	7e 91       	ld	r23, -X
    4ed0:	70 61       	ori	r23, 0x10	; 16
    4ed2:	7d 93       	st	X+, r23
    4ed4:	30 f0       	brcs	.+12     	; 0x4ee2 <__ftoa_engine+0x19a>
    4ed6:	83 95       	inc	r24
    4ed8:	71 e3       	ldi	r23, 0x31	; 49
    4eda:	7d 93       	st	X+, r23
    4edc:	70 e3       	ldi	r23, 0x30	; 48
    4ede:	2a 95       	dec	r18
    4ee0:	e1 f7       	brne	.-8      	; 0x4eda <__ftoa_engine+0x192>
    4ee2:	11 24       	eor	r1, r1
    4ee4:	ef 90       	pop	r14
    4ee6:	ff 90       	pop	r15
    4ee8:	0f 91       	pop	r16
    4eea:	1f 91       	pop	r17
    4eec:	cf 91       	pop	r28
    4eee:	df 91       	pop	r29
    4ef0:	99 27       	eor	r25, r25
    4ef2:	87 fd       	sbrc	r24, 7
    4ef4:	90 95       	com	r25
    4ef6:	08 95       	ret

00004ef8 <isspace>:
    4ef8:	91 11       	cpse	r25, r1
    4efa:	0c 94 a1 28 	jmp	0x5142	; 0x5142 <__ctype_isfalse>
    4efe:	80 32       	cpi	r24, 0x20	; 32
    4f00:	19 f0       	breq	.+6      	; 0x4f08 <isspace+0x10>
    4f02:	89 50       	subi	r24, 0x09	; 9
    4f04:	85 50       	subi	r24, 0x05	; 5
    4f06:	c8 f7       	brcc	.-14     	; 0x4efa <isspace+0x2>
    4f08:	08 95       	ret

00004f0a <strncasecmp_P>:
    4f0a:	fb 01       	movw	r30, r22
    4f0c:	dc 01       	movw	r26, r24
    4f0e:	41 50       	subi	r20, 0x01	; 1
    4f10:	50 40       	sbci	r21, 0x00	; 0
    4f12:	88 f0       	brcs	.+34     	; 0x4f36 <strncasecmp_P+0x2c>
    4f14:	8d 91       	ld	r24, X+
    4f16:	81 34       	cpi	r24, 0x41	; 65
    4f18:	1c f0       	brlt	.+6      	; 0x4f20 <strncasecmp_P+0x16>
    4f1a:	8b 35       	cpi	r24, 0x5B	; 91
    4f1c:	0c f4       	brge	.+2      	; 0x4f20 <strncasecmp_P+0x16>
    4f1e:	80 5e       	subi	r24, 0xE0	; 224
    4f20:	65 91       	lpm	r22, Z+
    4f22:	61 34       	cpi	r22, 0x41	; 65
    4f24:	1c f0       	brlt	.+6      	; 0x4f2c <strncasecmp_P+0x22>
    4f26:	6b 35       	cpi	r22, 0x5B	; 91
    4f28:	0c f4       	brge	.+2      	; 0x4f2c <strncasecmp_P+0x22>
    4f2a:	60 5e       	subi	r22, 0xE0	; 224
    4f2c:	86 1b       	sub	r24, r22
    4f2e:	61 11       	cpse	r22, r1
    4f30:	71 f3       	breq	.-36     	; 0x4f0e <strncasecmp_P+0x4>
    4f32:	99 0b       	sbc	r25, r25
    4f34:	08 95       	ret
    4f36:	88 1b       	sub	r24, r24
    4f38:	fc cf       	rjmp	.-8      	; 0x4f32 <strncasecmp_P+0x28>

00004f3a <strnlen_P>:
    4f3a:	fc 01       	movw	r30, r24
    4f3c:	05 90       	lpm	r0, Z+
    4f3e:	61 50       	subi	r22, 0x01	; 1
    4f40:	70 40       	sbci	r23, 0x00	; 0
    4f42:	01 10       	cpse	r0, r1
    4f44:	d8 f7       	brcc	.-10     	; 0x4f3c <strnlen_P+0x2>
    4f46:	80 95       	com	r24
    4f48:	90 95       	com	r25
    4f4a:	8e 0f       	add	r24, r30
    4f4c:	9f 1f       	adc	r25, r31
    4f4e:	08 95       	ret

00004f50 <strnlen>:
    4f50:	fc 01       	movw	r30, r24
    4f52:	61 50       	subi	r22, 0x01	; 1
    4f54:	70 40       	sbci	r23, 0x00	; 0
    4f56:	01 90       	ld	r0, Z+
    4f58:	01 10       	cpse	r0, r1
    4f5a:	d8 f7       	brcc	.-10     	; 0x4f52 <strnlen+0x2>
    4f5c:	80 95       	com	r24
    4f5e:	90 95       	com	r25
    4f60:	8e 0f       	add	r24, r30
    4f62:	9f 1f       	adc	r25, r31
    4f64:	08 95       	ret

00004f66 <__mulsi_const_10>:
    4f66:	59 2f       	mov	r21, r25
    4f68:	48 2f       	mov	r20, r24
    4f6a:	37 2f       	mov	r19, r23
    4f6c:	26 2f       	mov	r18, r22
    4f6e:	66 0f       	add	r22, r22
    4f70:	77 1f       	adc	r23, r23
    4f72:	88 1f       	adc	r24, r24
    4f74:	99 1f       	adc	r25, r25
    4f76:	66 0f       	add	r22, r22
    4f78:	77 1f       	adc	r23, r23
    4f7a:	88 1f       	adc	r24, r24
    4f7c:	99 1f       	adc	r25, r25
    4f7e:	62 0f       	add	r22, r18
    4f80:	73 1f       	adc	r23, r19
    4f82:	84 1f       	adc	r24, r20
    4f84:	95 1f       	adc	r25, r21
    4f86:	66 0f       	add	r22, r22
    4f88:	77 1f       	adc	r23, r23
    4f8a:	88 1f       	adc	r24, r24
    4f8c:	99 1f       	adc	r25, r25
    4f8e:	08 95       	ret

00004f90 <__mulhi_const_10>:
    4f90:	7a e0       	ldi	r23, 0x0A	; 10
    4f92:	97 9f       	mul	r25, r23
    4f94:	90 2d       	mov	r25, r0
    4f96:	87 9f       	mul	r24, r23
    4f98:	80 2d       	mov	r24, r0
    4f9a:	91 0d       	add	r25, r1
    4f9c:	11 24       	eor	r1, r1
    4f9e:	08 95       	ret

00004fa0 <fputc>:
    4fa0:	0f 93       	push	r16
    4fa2:	1f 93       	push	r17
    4fa4:	cf 93       	push	r28
    4fa6:	df 93       	push	r29
    4fa8:	fb 01       	movw	r30, r22
    4faa:	23 81       	ldd	r18, Z+3	; 0x03
    4fac:	21 fd       	sbrc	r18, 1
    4fae:	03 c0       	rjmp	.+6      	; 0x4fb6 <fputc+0x16>
    4fb0:	8f ef       	ldi	r24, 0xFF	; 255
    4fb2:	9f ef       	ldi	r25, 0xFF	; 255
    4fb4:	2c c0       	rjmp	.+88     	; 0x500e <fputc+0x6e>
    4fb6:	22 ff       	sbrs	r18, 2
    4fb8:	16 c0       	rjmp	.+44     	; 0x4fe6 <fputc+0x46>
    4fba:	46 81       	ldd	r20, Z+6	; 0x06
    4fbc:	57 81       	ldd	r21, Z+7	; 0x07
    4fbe:	24 81       	ldd	r18, Z+4	; 0x04
    4fc0:	35 81       	ldd	r19, Z+5	; 0x05
    4fc2:	42 17       	cp	r20, r18
    4fc4:	53 07       	cpc	r21, r19
    4fc6:	44 f4       	brge	.+16     	; 0x4fd8 <fputc+0x38>
    4fc8:	a0 81       	ld	r26, Z
    4fca:	b1 81       	ldd	r27, Z+1	; 0x01
    4fcc:	9d 01       	movw	r18, r26
    4fce:	2f 5f       	subi	r18, 0xFF	; 255
    4fd0:	3f 4f       	sbci	r19, 0xFF	; 255
    4fd2:	20 83       	st	Z, r18
    4fd4:	31 83       	std	Z+1, r19	; 0x01
    4fd6:	8c 93       	st	X, r24
    4fd8:	26 81       	ldd	r18, Z+6	; 0x06
    4fda:	37 81       	ldd	r19, Z+7	; 0x07
    4fdc:	2f 5f       	subi	r18, 0xFF	; 255
    4fde:	3f 4f       	sbci	r19, 0xFF	; 255
    4fe0:	26 83       	std	Z+6, r18	; 0x06
    4fe2:	37 83       	std	Z+7, r19	; 0x07
    4fe4:	14 c0       	rjmp	.+40     	; 0x500e <fputc+0x6e>
    4fe6:	8b 01       	movw	r16, r22
    4fe8:	ec 01       	movw	r28, r24
    4fea:	fb 01       	movw	r30, r22
    4fec:	00 84       	ldd	r0, Z+8	; 0x08
    4fee:	f1 85       	ldd	r31, Z+9	; 0x09
    4ff0:	e0 2d       	mov	r30, r0
    4ff2:	09 95       	icall
    4ff4:	89 2b       	or	r24, r25
    4ff6:	e1 f6       	brne	.-72     	; 0x4fb0 <fputc+0x10>
    4ff8:	d8 01       	movw	r26, r16
    4ffa:	16 96       	adiw	r26, 0x06	; 6
    4ffc:	8d 91       	ld	r24, X+
    4ffe:	9c 91       	ld	r25, X
    5000:	17 97       	sbiw	r26, 0x07	; 7
    5002:	01 96       	adiw	r24, 0x01	; 1
    5004:	16 96       	adiw	r26, 0x06	; 6
    5006:	8d 93       	st	X+, r24
    5008:	9c 93       	st	X, r25
    500a:	17 97       	sbiw	r26, 0x07	; 7
    500c:	ce 01       	movw	r24, r28
    500e:	df 91       	pop	r29
    5010:	cf 91       	pop	r28
    5012:	1f 91       	pop	r17
    5014:	0f 91       	pop	r16
    5016:	08 95       	ret

00005018 <snprintf>:
    5018:	0f 93       	push	r16
    501a:	1f 93       	push	r17
    501c:	cf 93       	push	r28
    501e:	df 93       	push	r29
    5020:	cd b7       	in	r28, 0x3d	; 61
    5022:	de b7       	in	r29, 0x3e	; 62
    5024:	2e 97       	sbiw	r28, 0x0e	; 14
    5026:	cd bf       	out	0x3d, r28	; 61
    5028:	de bf       	out	0x3e, r29	; 62
    502a:	0d 89       	ldd	r16, Y+21	; 0x15
    502c:	1e 89       	ldd	r17, Y+22	; 0x16
    502e:	8f 89       	ldd	r24, Y+23	; 0x17
    5030:	98 8d       	ldd	r25, Y+24	; 0x18
    5032:	26 e0       	ldi	r18, 0x06	; 6
    5034:	2c 83       	std	Y+4, r18	; 0x04
    5036:	09 83       	std	Y+1, r16	; 0x01
    5038:	1a 83       	std	Y+2, r17	; 0x02
    503a:	97 ff       	sbrs	r25, 7
    503c:	02 c0       	rjmp	.+4      	; 0x5042 <snprintf+0x2a>
    503e:	80 e0       	ldi	r24, 0x00	; 0
    5040:	90 e8       	ldi	r25, 0x80	; 128
    5042:	01 97       	sbiw	r24, 0x01	; 1
    5044:	8d 83       	std	Y+5, r24	; 0x05
    5046:	9e 83       	std	Y+6, r25	; 0x06
    5048:	ae 01       	movw	r20, r28
    504a:	45 5e       	subi	r20, 0xE5	; 229
    504c:	5f 4f       	sbci	r21, 0xFF	; 255
    504e:	69 8d       	ldd	r22, Y+25	; 0x19
    5050:	7a 8d       	ldd	r23, Y+26	; 0x1a
    5052:	ce 01       	movw	r24, r28
    5054:	01 96       	adiw	r24, 0x01	; 1
    5056:	0e 94 d3 1f 	call	0x3fa6	; 0x3fa6 <vfprintf>
    505a:	4d 81       	ldd	r20, Y+5	; 0x05
    505c:	5e 81       	ldd	r21, Y+6	; 0x06
    505e:	57 fd       	sbrc	r21, 7
    5060:	0a c0       	rjmp	.+20     	; 0x5076 <snprintf+0x5e>
    5062:	2f 81       	ldd	r18, Y+7	; 0x07
    5064:	38 85       	ldd	r19, Y+8	; 0x08
    5066:	42 17       	cp	r20, r18
    5068:	53 07       	cpc	r21, r19
    506a:	0c f4       	brge	.+2      	; 0x506e <snprintf+0x56>
    506c:	9a 01       	movw	r18, r20
    506e:	f8 01       	movw	r30, r16
    5070:	e2 0f       	add	r30, r18
    5072:	f3 1f       	adc	r31, r19
    5074:	10 82       	st	Z, r1
    5076:	2e 96       	adiw	r28, 0x0e	; 14
    5078:	cd bf       	out	0x3d, r28	; 61
    507a:	de bf       	out	0x3e, r29	; 62
    507c:	df 91       	pop	r29
    507e:	cf 91       	pop	r28
    5080:	1f 91       	pop	r17
    5082:	0f 91       	pop	r16
    5084:	08 95       	ret

00005086 <__ultoa_invert>:
    5086:	fa 01       	movw	r30, r20
    5088:	aa 27       	eor	r26, r26
    508a:	28 30       	cpi	r18, 0x08	; 8
    508c:	51 f1       	breq	.+84     	; 0x50e2 <__ultoa_invert+0x5c>
    508e:	20 31       	cpi	r18, 0x10	; 16
    5090:	81 f1       	breq	.+96     	; 0x50f2 <__ultoa_invert+0x6c>
    5092:	e8 94       	clt
    5094:	6f 93       	push	r22
    5096:	6e 7f       	andi	r22, 0xFE	; 254
    5098:	6e 5f       	subi	r22, 0xFE	; 254
    509a:	7f 4f       	sbci	r23, 0xFF	; 255
    509c:	8f 4f       	sbci	r24, 0xFF	; 255
    509e:	9f 4f       	sbci	r25, 0xFF	; 255
    50a0:	af 4f       	sbci	r26, 0xFF	; 255
    50a2:	b1 e0       	ldi	r27, 0x01	; 1
    50a4:	3e d0       	rcall	.+124    	; 0x5122 <__ultoa_invert+0x9c>
    50a6:	b4 e0       	ldi	r27, 0x04	; 4
    50a8:	3c d0       	rcall	.+120    	; 0x5122 <__ultoa_invert+0x9c>
    50aa:	67 0f       	add	r22, r23
    50ac:	78 1f       	adc	r23, r24
    50ae:	89 1f       	adc	r24, r25
    50b0:	9a 1f       	adc	r25, r26
    50b2:	a1 1d       	adc	r26, r1
    50b4:	68 0f       	add	r22, r24
    50b6:	79 1f       	adc	r23, r25
    50b8:	8a 1f       	adc	r24, r26
    50ba:	91 1d       	adc	r25, r1
    50bc:	a1 1d       	adc	r26, r1
    50be:	6a 0f       	add	r22, r26
    50c0:	71 1d       	adc	r23, r1
    50c2:	81 1d       	adc	r24, r1
    50c4:	91 1d       	adc	r25, r1
    50c6:	a1 1d       	adc	r26, r1
    50c8:	20 d0       	rcall	.+64     	; 0x510a <__ultoa_invert+0x84>
    50ca:	09 f4       	brne	.+2      	; 0x50ce <__ultoa_invert+0x48>
    50cc:	68 94       	set
    50ce:	3f 91       	pop	r19
    50d0:	2a e0       	ldi	r18, 0x0A	; 10
    50d2:	26 9f       	mul	r18, r22
    50d4:	11 24       	eor	r1, r1
    50d6:	30 19       	sub	r19, r0
    50d8:	30 5d       	subi	r19, 0xD0	; 208
    50da:	31 93       	st	Z+, r19
    50dc:	de f6       	brtc	.-74     	; 0x5094 <__ultoa_invert+0xe>
    50de:	cf 01       	movw	r24, r30
    50e0:	08 95       	ret
    50e2:	46 2f       	mov	r20, r22
    50e4:	47 70       	andi	r20, 0x07	; 7
    50e6:	40 5d       	subi	r20, 0xD0	; 208
    50e8:	41 93       	st	Z+, r20
    50ea:	b3 e0       	ldi	r27, 0x03	; 3
    50ec:	0f d0       	rcall	.+30     	; 0x510c <__ultoa_invert+0x86>
    50ee:	c9 f7       	brne	.-14     	; 0x50e2 <__ultoa_invert+0x5c>
    50f0:	f6 cf       	rjmp	.-20     	; 0x50de <__ultoa_invert+0x58>
    50f2:	46 2f       	mov	r20, r22
    50f4:	4f 70       	andi	r20, 0x0F	; 15
    50f6:	40 5d       	subi	r20, 0xD0	; 208
    50f8:	4a 33       	cpi	r20, 0x3A	; 58
    50fa:	18 f0       	brcs	.+6      	; 0x5102 <__ultoa_invert+0x7c>
    50fc:	49 5d       	subi	r20, 0xD9	; 217
    50fe:	31 fd       	sbrc	r19, 1
    5100:	40 52       	subi	r20, 0x20	; 32
    5102:	41 93       	st	Z+, r20
    5104:	02 d0       	rcall	.+4      	; 0x510a <__ultoa_invert+0x84>
    5106:	a9 f7       	brne	.-22     	; 0x50f2 <__ultoa_invert+0x6c>
    5108:	ea cf       	rjmp	.-44     	; 0x50de <__ultoa_invert+0x58>
    510a:	b4 e0       	ldi	r27, 0x04	; 4
    510c:	a6 95       	lsr	r26
    510e:	97 95       	ror	r25
    5110:	87 95       	ror	r24
    5112:	77 95       	ror	r23
    5114:	67 95       	ror	r22
    5116:	ba 95       	dec	r27
    5118:	c9 f7       	brne	.-14     	; 0x510c <__ultoa_invert+0x86>
    511a:	00 97       	sbiw	r24, 0x00	; 0
    511c:	61 05       	cpc	r22, r1
    511e:	71 05       	cpc	r23, r1
    5120:	08 95       	ret
    5122:	9b 01       	movw	r18, r22
    5124:	ac 01       	movw	r20, r24
    5126:	0a 2e       	mov	r0, r26
    5128:	06 94       	lsr	r0
    512a:	57 95       	ror	r21
    512c:	47 95       	ror	r20
    512e:	37 95       	ror	r19
    5130:	27 95       	ror	r18
    5132:	ba 95       	dec	r27
    5134:	c9 f7       	brne	.-14     	; 0x5128 <__ultoa_invert+0xa2>
    5136:	62 0f       	add	r22, r18
    5138:	73 1f       	adc	r23, r19
    513a:	84 1f       	adc	r24, r20
    513c:	95 1f       	adc	r25, r21
    513e:	a0 1d       	adc	r26, r0
    5140:	08 95       	ret

00005142 <__ctype_isfalse>:
    5142:	99 27       	eor	r25, r25
    5144:	88 27       	eor	r24, r24

00005146 <__ctype_istrue>:
    5146:	08 95       	ret

00005148 <_exit>:
    5148:	f8 94       	cli

0000514a <__stop_program>:
    514a:	ff cf       	rjmp	.-2      	; 0x514a <__stop_program>
